
bin/Release/rgbx.elf:     file format elf32-avr

Sections:
Idx Name          Size      VMA       LMA       File off  Algn
  0 .text         00001362  00000000  00000000  00000074  2**1
                  CONTENTS, ALLOC, LOAD, READONLY, CODE
  1 .data         00000000  00800060  00001362  000013d6  2**0
                  CONTENTS, ALLOC, LOAD, DATA
  2 .stab         000006cc  00000000  00000000  000013d8  2**2
                  CONTENTS, READONLY, DEBUGGING
  3 .stabstr      00000054  00000000  00000000  00001aa4  2**0
                  CONTENTS, READONLY, DEBUGGING
  4 .comment      00000011  00000000  00000000  00001af8  2**0
                  CONTENTS, READONLY

Disassembly of section .text:

00000000 <__vectors>:
       0:	12 c0       	rjmp	.+36     	; 0x26 <__ctors_end>
       2:	19 c0       	rjmp	.+50     	; 0x36 <__bad_interrupt>
       4:	18 c0       	rjmp	.+48     	; 0x36 <__bad_interrupt>
       6:	17 c0       	rjmp	.+46     	; 0x36 <__bad_interrupt>
       8:	16 c0       	rjmp	.+44     	; 0x36 <__bad_interrupt>
       a:	15 c0       	rjmp	.+42     	; 0x36 <__bad_interrupt>
       c:	14 c0       	rjmp	.+40     	; 0x36 <__bad_interrupt>
       e:	13 c0       	rjmp	.+38     	; 0x36 <__bad_interrupt>
      10:	12 c0       	rjmp	.+36     	; 0x36 <__bad_interrupt>
      12:	11 c0       	rjmp	.+34     	; 0x36 <__bad_interrupt>
      14:	10 c0       	rjmp	.+32     	; 0x36 <__bad_interrupt>
      16:	0f c0       	rjmp	.+30     	; 0x36 <__bad_interrupt>
      18:	0e c0       	rjmp	.+28     	; 0x36 <__bad_interrupt>
      1a:	0d c0       	rjmp	.+26     	; 0x36 <__bad_interrupt>
      1c:	0c c0       	rjmp	.+24     	; 0x36 <__bad_interrupt>
      1e:	0b c0       	rjmp	.+22     	; 0x36 <__bad_interrupt>
      20:	0a c0       	rjmp	.+20     	; 0x36 <__bad_interrupt>
      22:	09 c0       	rjmp	.+18     	; 0x36 <__bad_interrupt>
      24:	08 c0       	rjmp	.+16     	; 0x36 <__bad_interrupt>

00000026 <__ctors_end>:
      26:	11 24       	eor	r1, r1
      28:	1f be       	out	0x3f, r1	; 63
      2a:	cf e5       	ldi	r28, 0x5F	; 95
      2c:	d4 e0       	ldi	r29, 0x04	; 4
      2e:	de bf       	out	0x3e, r29	; 62
      30:	cd bf       	out	0x3d, r28	; 61
      32:	02 d0       	rcall	.+4      	; 0x38 <main>
      34:	94 c9       	rjmp	.-3288   	; 0xfffff35e <__eeprom_end+0xff7ef35e>

00000036 <__bad_interrupt>:
      36:	e4 cf       	rjmp	.-56     	; 0x0 <__vectors>

00000038 <main>:
      38:	18 ba       	out	0x18, r1	; 24
      3a:	8e e0       	ldi	r24, 0x0E	; 14
      3c:	87 bb       	out	0x17, r24	; 23
      3e:	15 ba       	out	0x15, r1	; 21
      40:	14 ba       	out	0x14, r1	; 20
      42:	12 ba       	out	0x12, r1	; 18
      44:	11 ba       	out	0x11, r1	; 17
      46:	13 be       	out	0x33, r1	; 51
      48:	12 be       	out	0x32, r1	; 50
      4a:	81 ea       	ldi	r24, 0xA1	; 161
      4c:	8f bd       	out	0x2f, r24	; 47
      4e:	89 e0       	ldi	r24, 0x09	; 9
      50:	8e bd       	out	0x2e, r24	; 46
      52:	1d bc       	out	0x2d, r1	; 45
      54:	1c bc       	out	0x2c, r1	; 44
      56:	17 bc       	out	0x27, r1	; 39
      58:	16 bc       	out	0x26, r1	; 38
      5a:	1b bc       	out	0x2b, r1	; 43
      5c:	1a bc       	out	0x2a, r1	; 42
      5e:	19 bc       	out	0x29, r1	; 41
      60:	18 bc       	out	0x28, r1	; 40
      62:	12 bc       	out	0x22, r1	; 34
      64:	89 e6       	ldi	r24, 0x69	; 105
      66:	85 bd       	out	0x25, r24	; 37
      68:	14 bc       	out	0x24, r1	; 36
      6a:	13 bc       	out	0x23, r1	; 35
      6c:	15 be       	out	0x35, r1	; 53
      6e:	19 be       	out	0x39, r1	; 57
      70:	80 e8       	ldi	r24, 0x80	; 128
      72:	88 b9       	out	0x08, r24	; 8
      74:	10 be       	out	0x30, r1	; 48
      76:	8a ef       	ldi	r24, 0xFA	; 250
      78:	8a bd       	out	0x2a, r24	; 42
      7a:	18 bc       	out	0x28, r1	; 40
      7c:	13 bc       	out	0x23, r1	; 35
      7e:	ef ef       	ldi	r30, 0xFF	; 255
      80:	ff e3       	ldi	r31, 0x3F	; 63
      82:	31 97       	sbiw	r30, 0x01	; 1
      84:	f1 f7       	brne	.-4      	; 0x82 <__SREG__+0x43>
      86:	00 c0       	rjmp	.+0      	; 0x88 <__SREG__+0x49>
      88:	ef ef       	ldi	r30, 0xFF	; 255
      8a:	ff e3       	ldi	r31, 0x3F	; 63
      8c:	31 97       	sbiw	r30, 0x01	; 1
      8e:	f1 f7       	brne	.-4      	; 0x8c <__SREG__+0x4d>
      90:	00 c0       	rjmp	.+0      	; 0x92 <__SREG__+0x53>
      92:	ef ef       	ldi	r30, 0xFF	; 255
      94:	ff e3       	ldi	r31, 0x3F	; 63
      96:	31 97       	sbiw	r30, 0x01	; 1
      98:	f1 f7       	brne	.-4      	; 0x96 <__SREG__+0x57>
      9a:	00 c0       	rjmp	.+0      	; 0x9c <__SREG__+0x5d>
      9c:	ef ef       	ldi	r30, 0xFF	; 255
      9e:	ff e3       	ldi	r31, 0x3F	; 63
      a0:	31 97       	sbiw	r30, 0x01	; 1
      a2:	f1 f7       	brne	.-4      	; 0xa0 <__SREG__+0x61>
      a4:	00 c0       	rjmp	.+0      	; 0xa6 <__SREG__+0x67>
      a6:	ef ef       	ldi	r30, 0xFF	; 255
      a8:	ff e3       	ldi	r31, 0x3F	; 63
      aa:	31 97       	sbiw	r30, 0x01	; 1
      ac:	f1 f7       	brne	.-4      	; 0xaa <__SREG__+0x6b>
      ae:	00 c0       	rjmp	.+0      	; 0xb0 <__SREG__+0x71>
      b0:	ef ef       	ldi	r30, 0xFF	; 255
      b2:	ff e3       	ldi	r31, 0x3F	; 63
      b4:	31 97       	sbiw	r30, 0x01	; 1
      b6:	f1 f7       	brne	.-4      	; 0xb4 <__SREG__+0x75>
      b8:	00 c0       	rjmp	.+0      	; 0xba <__SREG__+0x7b>
      ba:	ef ef       	ldi	r30, 0xFF	; 255
      bc:	ff e3       	ldi	r31, 0x3F	; 63
      be:	31 97       	sbiw	r30, 0x01	; 1
      c0:	f1 f7       	brne	.-4      	; 0xbe <__SREG__+0x7f>
      c2:	00 c0       	rjmp	.+0      	; 0xc4 <__SREG__+0x85>
      c4:	ef ef       	ldi	r30, 0xFF	; 255
      c6:	ff e3       	ldi	r31, 0x3F	; 63
      c8:	31 97       	sbiw	r30, 0x01	; 1
      ca:	f1 f7       	brne	.-4      	; 0xc8 <__SREG__+0x89>
      cc:	00 c0       	rjmp	.+0      	; 0xce <__SREG__+0x8f>
      ce:	ef ef       	ldi	r30, 0xFF	; 255
      d0:	ff e3       	ldi	r31, 0x3F	; 63
      d2:	31 97       	sbiw	r30, 0x01	; 1
      d4:	f1 f7       	brne	.-4      	; 0xd2 <__SREG__+0x93>
      d6:	00 c0       	rjmp	.+0      	; 0xd8 <__SREG__+0x99>
      d8:	ef ef       	ldi	r30, 0xFF	; 255
      da:	ff e3       	ldi	r31, 0x3F	; 63
      dc:	31 97       	sbiw	r30, 0x01	; 1
      de:	f1 f7       	brne	.-4      	; 0xdc <__SREG__+0x9d>
      e0:	00 c0       	rjmp	.+0      	; 0xe2 <__SREG__+0xa3>
      e2:	ef ef       	ldi	r30, 0xFF	; 255
      e4:	ff e3       	ldi	r31, 0x3F	; 63
      e6:	31 97       	sbiw	r30, 0x01	; 1
      e8:	f1 f7       	brne	.-4      	; 0xe6 <__SREG__+0xa7>
      ea:	00 c0       	rjmp	.+0      	; 0xec <__SREG__+0xad>
      ec:	ef ef       	ldi	r30, 0xFF	; 255
      ee:	ff e3       	ldi	r31, 0x3F	; 63
      f0:	31 97       	sbiw	r30, 0x01	; 1
      f2:	f1 f7       	brne	.-4      	; 0xf0 <__SREG__+0xb1>
      f4:	00 c0       	rjmp	.+0      	; 0xf6 <__SREG__+0xb7>
      f6:	ef ef       	ldi	r30, 0xFF	; 255
      f8:	ff e3       	ldi	r31, 0x3F	; 63
      fa:	31 97       	sbiw	r30, 0x01	; 1
      fc:	f1 f7       	brne	.-4      	; 0xfa <__SREG__+0xbb>
      fe:	00 c0       	rjmp	.+0      	; 0x100 <__SREG__+0xc1>
     100:	ef ef       	ldi	r30, 0xFF	; 255
     102:	ff e3       	ldi	r31, 0x3F	; 63
     104:	31 97       	sbiw	r30, 0x01	; 1
     106:	f1 f7       	brne	.-4      	; 0x104 <__SREG__+0xc5>
     108:	00 c0       	rjmp	.+0      	; 0x10a <__SREG__+0xcb>
     10a:	ef ef       	ldi	r30, 0xFF	; 255
     10c:	ff e3       	ldi	r31, 0x3F	; 63
     10e:	31 97       	sbiw	r30, 0x01	; 1
     110:	f1 f7       	brne	.-4      	; 0x10e <__SREG__+0xcf>
     112:	00 c0       	rjmp	.+0      	; 0x114 <__SREG__+0xd5>
     114:	ef ef       	ldi	r30, 0xFF	; 255
     116:	ff e3       	ldi	r31, 0x3F	; 63
     118:	31 97       	sbiw	r30, 0x01	; 1
     11a:	f1 f7       	brne	.-4      	; 0x118 <__SREG__+0xd9>
     11c:	00 c0       	rjmp	.+0      	; 0x11e <__SREG__+0xdf>
     11e:	ef ef       	ldi	r30, 0xFF	; 255
     120:	ff e3       	ldi	r31, 0x3F	; 63
     122:	31 97       	sbiw	r30, 0x01	; 1
     124:	f1 f7       	brne	.-4      	; 0x122 <__SREG__+0xe3>
     126:	00 c0       	rjmp	.+0      	; 0x128 <__SREG__+0xe9>
     128:	ef ef       	ldi	r30, 0xFF	; 255
     12a:	ff e3       	ldi	r31, 0x3F	; 63
     12c:	31 97       	sbiw	r30, 0x01	; 1
     12e:	f1 f7       	brne	.-4      	; 0x12c <__SREG__+0xed>
     130:	00 c0       	rjmp	.+0      	; 0x132 <__SREG__+0xf3>
     132:	ef ef       	ldi	r30, 0xFF	; 255
     134:	ff e3       	ldi	r31, 0x3F	; 63
     136:	31 97       	sbiw	r30, 0x01	; 1
     138:	f1 f7       	brne	.-4      	; 0x136 <__SREG__+0xf7>
     13a:	00 c0       	rjmp	.+0      	; 0x13c <__SREG__+0xfd>
     13c:	ef ef       	ldi	r30, 0xFF	; 255
     13e:	ff e3       	ldi	r31, 0x3F	; 63
     140:	31 97       	sbiw	r30, 0x01	; 1
     142:	f1 f7       	brne	.-4      	; 0x140 <__SREG__+0x101>
     144:	00 c0       	rjmp	.+0      	; 0x146 <__SREG__+0x107>
     146:	ef ef       	ldi	r30, 0xFF	; 255
     148:	ff e3       	ldi	r31, 0x3F	; 63
     14a:	31 97       	sbiw	r30, 0x01	; 1
     14c:	f1 f7       	brne	.-4      	; 0x14a <__SREG__+0x10b>
     14e:	00 c0       	rjmp	.+0      	; 0x150 <__SREG__+0x111>
     150:	ef ef       	ldi	r30, 0xFF	; 255
     152:	ff e3       	ldi	r31, 0x3F	; 63
     154:	31 97       	sbiw	r30, 0x01	; 1
     156:	f1 f7       	brne	.-4      	; 0x154 <__SREG__+0x115>
     158:	00 c0       	rjmp	.+0      	; 0x15a <__SREG__+0x11b>
     15a:	ef ef       	ldi	r30, 0xFF	; 255
     15c:	ff e3       	ldi	r31, 0x3F	; 63
     15e:	31 97       	sbiw	r30, 0x01	; 1
     160:	f1 f7       	brne	.-4      	; 0x15e <__SREG__+0x11f>
     162:	00 c0       	rjmp	.+0      	; 0x164 <__SREG__+0x125>
     164:	ef ef       	ldi	r30, 0xFF	; 255
     166:	ff e3       	ldi	r31, 0x3F	; 63
     168:	31 97       	sbiw	r30, 0x01	; 1
     16a:	f1 f7       	brne	.-4      	; 0x168 <__SREG__+0x129>
     16c:	00 c0       	rjmp	.+0      	; 0x16e <__SREG__+0x12f>
     16e:	ef ef       	ldi	r30, 0xFF	; 255
     170:	ff e3       	ldi	r31, 0x3F	; 63
     172:	31 97       	sbiw	r30, 0x01	; 1
     174:	f1 f7       	brne	.-4      	; 0x172 <__SREG__+0x133>
     176:	00 c0       	rjmp	.+0      	; 0x178 <__SREG__+0x139>
     178:	ef ef       	ldi	r30, 0xFF	; 255
     17a:	ff e3       	ldi	r31, 0x3F	; 63
     17c:	31 97       	sbiw	r30, 0x01	; 1
     17e:	f1 f7       	brne	.-4      	; 0x17c <__SREG__+0x13d>
     180:	00 c0       	rjmp	.+0      	; 0x182 <__SREG__+0x143>
     182:	ef ef       	ldi	r30, 0xFF	; 255
     184:	ff e3       	ldi	r31, 0x3F	; 63
     186:	31 97       	sbiw	r30, 0x01	; 1
     188:	f1 f7       	brne	.-4      	; 0x186 <__SREG__+0x147>
     18a:	00 c0       	rjmp	.+0      	; 0x18c <__SREG__+0x14d>
     18c:	ef ef       	ldi	r30, 0xFF	; 255
     18e:	ff e3       	ldi	r31, 0x3F	; 63
     190:	31 97       	sbiw	r30, 0x01	; 1
     192:	f1 f7       	brne	.-4      	; 0x190 <__SREG__+0x151>
     194:	00 c0       	rjmp	.+0      	; 0x196 <__SREG__+0x157>
     196:	ef ef       	ldi	r30, 0xFF	; 255
     198:	ff e3       	ldi	r31, 0x3F	; 63
     19a:	31 97       	sbiw	r30, 0x01	; 1
     19c:	f1 f7       	brne	.-4      	; 0x19a <__SREG__+0x15b>
     19e:	00 c0       	rjmp	.+0      	; 0x1a0 <__SREG__+0x161>
     1a0:	ef ef       	ldi	r30, 0xFF	; 255
     1a2:	ff e3       	ldi	r31, 0x3F	; 63
     1a4:	31 97       	sbiw	r30, 0x01	; 1
     1a6:	f1 f7       	brne	.-4      	; 0x1a4 <__SREG__+0x165>
     1a8:	00 c0       	rjmp	.+0      	; 0x1aa <__SREG__+0x16b>
     1aa:	ef ef       	ldi	r30, 0xFF	; 255
     1ac:	ff e3       	ldi	r31, 0x3F	; 63
     1ae:	31 97       	sbiw	r30, 0x01	; 1
     1b0:	f1 f7       	brne	.-4      	; 0x1ae <__SREG__+0x16f>
     1b2:	00 c0       	rjmp	.+0      	; 0x1b4 <__SREG__+0x175>
     1b4:	ef ef       	ldi	r30, 0xFF	; 255
     1b6:	ff e3       	ldi	r31, 0x3F	; 63
     1b8:	31 97       	sbiw	r30, 0x01	; 1
     1ba:	f1 f7       	brne	.-4      	; 0x1b8 <__SREG__+0x179>
     1bc:	00 c0       	rjmp	.+0      	; 0x1be <__SREG__+0x17f>
     1be:	ef ef       	ldi	r30, 0xFF	; 255
     1c0:	ff e3       	ldi	r31, 0x3F	; 63
     1c2:	31 97       	sbiw	r30, 0x01	; 1
     1c4:	f1 f7       	brne	.-4      	; 0x1c2 <__SREG__+0x183>
     1c6:	00 c0       	rjmp	.+0      	; 0x1c8 <__SREG__+0x189>
     1c8:	ef ef       	ldi	r30, 0xFF	; 255
     1ca:	ff e3       	ldi	r31, 0x3F	; 63
     1cc:	31 97       	sbiw	r30, 0x01	; 1
     1ce:	f1 f7       	brne	.-4      	; 0x1cc <__SREG__+0x18d>
     1d0:	00 c0       	rjmp	.+0      	; 0x1d2 <__SREG__+0x193>
     1d2:	ef ef       	ldi	r30, 0xFF	; 255
     1d4:	ff e3       	ldi	r31, 0x3F	; 63
     1d6:	31 97       	sbiw	r30, 0x01	; 1
     1d8:	f1 f7       	brne	.-4      	; 0x1d6 <__SREG__+0x197>
     1da:	00 c0       	rjmp	.+0      	; 0x1dc <__SREG__+0x19d>
     1dc:	ef ef       	ldi	r30, 0xFF	; 255
     1de:	ff e3       	ldi	r31, 0x3F	; 63
     1e0:	31 97       	sbiw	r30, 0x01	; 1
     1e2:	f1 f7       	brne	.-4      	; 0x1e0 <__SREG__+0x1a1>
     1e4:	00 c0       	rjmp	.+0      	; 0x1e6 <__SREG__+0x1a7>
     1e6:	ef ef       	ldi	r30, 0xFF	; 255
     1e8:	ff e3       	ldi	r31, 0x3F	; 63
     1ea:	31 97       	sbiw	r30, 0x01	; 1
     1ec:	f1 f7       	brne	.-4      	; 0x1ea <__SREG__+0x1ab>
     1ee:	00 c0       	rjmp	.+0      	; 0x1f0 <__SREG__+0x1b1>
     1f0:	ef ef       	ldi	r30, 0xFF	; 255
     1f2:	ff e3       	ldi	r31, 0x3F	; 63
     1f4:	31 97       	sbiw	r30, 0x01	; 1
     1f6:	f1 f7       	brne	.-4      	; 0x1f4 <__SREG__+0x1b5>
     1f8:	00 c0       	rjmp	.+0      	; 0x1fa <__SREG__+0x1bb>
     1fa:	ef ef       	ldi	r30, 0xFF	; 255
     1fc:	ff e3       	ldi	r31, 0x3F	; 63
     1fe:	31 97       	sbiw	r30, 0x01	; 1
     200:	f1 f7       	brne	.-4      	; 0x1fe <__SREG__+0x1bf>
     202:	00 c0       	rjmp	.+0      	; 0x204 <__SREG__+0x1c5>
     204:	ef ef       	ldi	r30, 0xFF	; 255
     206:	ff e3       	ldi	r31, 0x3F	; 63
     208:	31 97       	sbiw	r30, 0x01	; 1
     20a:	f1 f7       	brne	.-4      	; 0x208 <__SREG__+0x1c9>
     20c:	00 c0       	rjmp	.+0      	; 0x20e <__SREG__+0x1cf>
     20e:	ef ef       	ldi	r30, 0xFF	; 255
     210:	ff e3       	ldi	r31, 0x3F	; 63
     212:	31 97       	sbiw	r30, 0x01	; 1
     214:	f1 f7       	brne	.-4      	; 0x212 <__SREG__+0x1d3>
     216:	00 c0       	rjmp	.+0      	; 0x218 <__SREG__+0x1d9>
     218:	ef ef       	ldi	r30, 0xFF	; 255
     21a:	ff e3       	ldi	r31, 0x3F	; 63
     21c:	31 97       	sbiw	r30, 0x01	; 1
     21e:	f1 f7       	brne	.-4      	; 0x21c <__SREG__+0x1dd>
     220:	00 c0       	rjmp	.+0      	; 0x222 <__SREG__+0x1e3>
     222:	ef ef       	ldi	r30, 0xFF	; 255
     224:	ff e3       	ldi	r31, 0x3F	; 63
     226:	31 97       	sbiw	r30, 0x01	; 1
     228:	f1 f7       	brne	.-4      	; 0x226 <__SREG__+0x1e7>
     22a:	00 c0       	rjmp	.+0      	; 0x22c <__SREG__+0x1ed>
     22c:	ef ef       	ldi	r30, 0xFF	; 255
     22e:	ff e3       	ldi	r31, 0x3F	; 63
     230:	31 97       	sbiw	r30, 0x01	; 1
     232:	f1 f7       	brne	.-4      	; 0x230 <__SREG__+0x1f1>
     234:	00 c0       	rjmp	.+0      	; 0x236 <__SREG__+0x1f7>
     236:	ef ef       	ldi	r30, 0xFF	; 255
     238:	ff e3       	ldi	r31, 0x3F	; 63
     23a:	31 97       	sbiw	r30, 0x01	; 1
     23c:	f1 f7       	brne	.-4      	; 0x23a <__SREG__+0x1fb>
     23e:	00 c0       	rjmp	.+0      	; 0x240 <__SREG__+0x201>
     240:	ef ef       	ldi	r30, 0xFF	; 255
     242:	ff e3       	ldi	r31, 0x3F	; 63
     244:	31 97       	sbiw	r30, 0x01	; 1
     246:	f1 f7       	brne	.-4      	; 0x244 <__SREG__+0x205>
     248:	00 c0       	rjmp	.+0      	; 0x24a <__SREG__+0x20b>
     24a:	ef ef       	ldi	r30, 0xFF	; 255
     24c:	ff e3       	ldi	r31, 0x3F	; 63
     24e:	31 97       	sbiw	r30, 0x01	; 1
     250:	f1 f7       	brne	.-4      	; 0x24e <__SREG__+0x20f>
     252:	00 c0       	rjmp	.+0      	; 0x254 <__SREG__+0x215>
     254:	ef ef       	ldi	r30, 0xFF	; 255
     256:	ff e3       	ldi	r31, 0x3F	; 63
     258:	31 97       	sbiw	r30, 0x01	; 1
     25a:	f1 f7       	brne	.-4      	; 0x258 <__SREG__+0x219>
     25c:	00 c0       	rjmp	.+0      	; 0x25e <__SREG__+0x21f>
     25e:	ef ef       	ldi	r30, 0xFF	; 255
     260:	ff e3       	ldi	r31, 0x3F	; 63
     262:	31 97       	sbiw	r30, 0x01	; 1
     264:	f1 f7       	brne	.-4      	; 0x262 <__SREG__+0x223>
     266:	00 c0       	rjmp	.+0      	; 0x268 <__SREG__+0x229>
     268:	ef ef       	ldi	r30, 0xFF	; 255
     26a:	ff e3       	ldi	r31, 0x3F	; 63
     26c:	31 97       	sbiw	r30, 0x01	; 1
     26e:	f1 f7       	brne	.-4      	; 0x26c <__SREG__+0x22d>
     270:	00 c0       	rjmp	.+0      	; 0x272 <__SREG__+0x233>
     272:	ef ef       	ldi	r30, 0xFF	; 255
     274:	ff e3       	ldi	r31, 0x3F	; 63
     276:	31 97       	sbiw	r30, 0x01	; 1
     278:	f1 f7       	brne	.-4      	; 0x276 <__SREG__+0x237>
     27a:	00 c0       	rjmp	.+0      	; 0x27c <__SREG__+0x23d>
     27c:	ef ef       	ldi	r30, 0xFF	; 255
     27e:	ff e3       	ldi	r31, 0x3F	; 63
     280:	31 97       	sbiw	r30, 0x01	; 1
     282:	f1 f7       	brne	.-4      	; 0x280 <__SREG__+0x241>
     284:	00 c0       	rjmp	.+0      	; 0x286 <__SREG__+0x247>
     286:	ef ef       	ldi	r30, 0xFF	; 255
     288:	ff e3       	ldi	r31, 0x3F	; 63
     28a:	31 97       	sbiw	r30, 0x01	; 1
     28c:	f1 f7       	brne	.-4      	; 0x28a <__SREG__+0x24b>
     28e:	00 c0       	rjmp	.+0      	; 0x290 <__SREG__+0x251>
     290:	ef ef       	ldi	r30, 0xFF	; 255
     292:	ff e3       	ldi	r31, 0x3F	; 63
     294:	31 97       	sbiw	r30, 0x01	; 1
     296:	f1 f7       	brne	.-4      	; 0x294 <__SREG__+0x255>
     298:	00 c0       	rjmp	.+0      	; 0x29a <__SREG__+0x25b>
     29a:	ef ef       	ldi	r30, 0xFF	; 255
     29c:	ff e3       	ldi	r31, 0x3F	; 63
     29e:	31 97       	sbiw	r30, 0x01	; 1
     2a0:	f1 f7       	brne	.-4      	; 0x29e <__SREG__+0x25f>
     2a2:	00 c0       	rjmp	.+0      	; 0x2a4 <__SREG__+0x265>
     2a4:	ef ef       	ldi	r30, 0xFF	; 255
     2a6:	ff e3       	ldi	r31, 0x3F	; 63
     2a8:	31 97       	sbiw	r30, 0x01	; 1
     2aa:	f1 f7       	brne	.-4      	; 0x2a8 <__SREG__+0x269>
     2ac:	00 c0       	rjmp	.+0      	; 0x2ae <__SREG__+0x26f>
     2ae:	ef ef       	ldi	r30, 0xFF	; 255
     2b0:	ff e3       	ldi	r31, 0x3F	; 63
     2b2:	31 97       	sbiw	r30, 0x01	; 1
     2b4:	f1 f7       	brne	.-4      	; 0x2b2 <__SREG__+0x273>
     2b6:	00 c0       	rjmp	.+0      	; 0x2b8 <__SREG__+0x279>
     2b8:	ef ef       	ldi	r30, 0xFF	; 255
     2ba:	ff e3       	ldi	r31, 0x3F	; 63
     2bc:	31 97       	sbiw	r30, 0x01	; 1
     2be:	f1 f7       	brne	.-4      	; 0x2bc <__SREG__+0x27d>
     2c0:	00 c0       	rjmp	.+0      	; 0x2c2 <__SREG__+0x283>
     2c2:	ef ef       	ldi	r30, 0xFF	; 255
     2c4:	ff e3       	ldi	r31, 0x3F	; 63
     2c6:	31 97       	sbiw	r30, 0x01	; 1
     2c8:	f1 f7       	brne	.-4      	; 0x2c6 <__SREG__+0x287>
     2ca:	00 c0       	rjmp	.+0      	; 0x2cc <__SREG__+0x28d>
     2cc:	ef ef       	ldi	r30, 0xFF	; 255
     2ce:	ff e3       	ldi	r31, 0x3F	; 63
     2d0:	31 97       	sbiw	r30, 0x01	; 1
     2d2:	f1 f7       	brne	.-4      	; 0x2d0 <__SREG__+0x291>
     2d4:	00 c0       	rjmp	.+0      	; 0x2d6 <__SREG__+0x297>
     2d6:	ef ef       	ldi	r30, 0xFF	; 255
     2d8:	ff e3       	ldi	r31, 0x3F	; 63
     2da:	31 97       	sbiw	r30, 0x01	; 1
     2dc:	f1 f7       	brne	.-4      	; 0x2da <__SREG__+0x29b>
     2de:	00 c0       	rjmp	.+0      	; 0x2e0 <__SREG__+0x2a1>
     2e0:	ef ef       	ldi	r30, 0xFF	; 255
     2e2:	ff e3       	ldi	r31, 0x3F	; 63
     2e4:	31 97       	sbiw	r30, 0x01	; 1
     2e6:	f1 f7       	brne	.-4      	; 0x2e4 <__SREG__+0x2a5>
     2e8:	00 c0       	rjmp	.+0      	; 0x2ea <__SREG__+0x2ab>
     2ea:	ef ef       	ldi	r30, 0xFF	; 255
     2ec:	ff e3       	ldi	r31, 0x3F	; 63
     2ee:	31 97       	sbiw	r30, 0x01	; 1
     2f0:	f1 f7       	brne	.-4      	; 0x2ee <__SREG__+0x2af>
     2f2:	00 c0       	rjmp	.+0      	; 0x2f4 <__SREG__+0x2b5>
     2f4:	ef ef       	ldi	r30, 0xFF	; 255
     2f6:	ff e3       	ldi	r31, 0x3F	; 63
     2f8:	31 97       	sbiw	r30, 0x01	; 1
     2fa:	f1 f7       	brne	.-4      	; 0x2f8 <__SREG__+0x2b9>
     2fc:	00 c0       	rjmp	.+0      	; 0x2fe <__SREG__+0x2bf>
     2fe:	ef ef       	ldi	r30, 0xFF	; 255
     300:	ff e3       	ldi	r31, 0x3F	; 63
     302:	31 97       	sbiw	r30, 0x01	; 1
     304:	f1 f7       	brne	.-4      	; 0x302 <__SREG__+0x2c3>
     306:	00 c0       	rjmp	.+0      	; 0x308 <__SREG__+0x2c9>
     308:	ef ef       	ldi	r30, 0xFF	; 255
     30a:	ff e3       	ldi	r31, 0x3F	; 63
     30c:	31 97       	sbiw	r30, 0x01	; 1
     30e:	f1 f7       	brne	.-4      	; 0x30c <__SREG__+0x2cd>
     310:	00 c0       	rjmp	.+0      	; 0x312 <__SREG__+0x2d3>
     312:	ef ef       	ldi	r30, 0xFF	; 255
     314:	ff e3       	ldi	r31, 0x3F	; 63
     316:	31 97       	sbiw	r30, 0x01	; 1
     318:	f1 f7       	brne	.-4      	; 0x316 <__SREG__+0x2d7>
     31a:	00 c0       	rjmp	.+0      	; 0x31c <__SREG__+0x2dd>
     31c:	ef ef       	ldi	r30, 0xFF	; 255
     31e:	ff e3       	ldi	r31, 0x3F	; 63
     320:	31 97       	sbiw	r30, 0x01	; 1
     322:	f1 f7       	brne	.-4      	; 0x320 <__SREG__+0x2e1>
     324:	00 c0       	rjmp	.+0      	; 0x326 <__SREG__+0x2e7>
     326:	ef ef       	ldi	r30, 0xFF	; 255
     328:	ff e3       	ldi	r31, 0x3F	; 63
     32a:	31 97       	sbiw	r30, 0x01	; 1
     32c:	f1 f7       	brne	.-4      	; 0x32a <__SREG__+0x2eb>
     32e:	00 c0       	rjmp	.+0      	; 0x330 <__SREG__+0x2f1>
     330:	ef ef       	ldi	r30, 0xFF	; 255
     332:	ff e3       	ldi	r31, 0x3F	; 63
     334:	31 97       	sbiw	r30, 0x01	; 1
     336:	f1 f7       	brne	.-4      	; 0x334 <__SREG__+0x2f5>
     338:	00 c0       	rjmp	.+0      	; 0x33a <__SREG__+0x2fb>
     33a:	ef ef       	ldi	r30, 0xFF	; 255
     33c:	ff e3       	ldi	r31, 0x3F	; 63
     33e:	31 97       	sbiw	r30, 0x01	; 1
     340:	f1 f7       	brne	.-4      	; 0x33e <__SREG__+0x2ff>
     342:	00 c0       	rjmp	.+0      	; 0x344 <__SREG__+0x305>
     344:	ef ef       	ldi	r30, 0xFF	; 255
     346:	ff e3       	ldi	r31, 0x3F	; 63
     348:	31 97       	sbiw	r30, 0x01	; 1
     34a:	f1 f7       	brne	.-4      	; 0x348 <__SREG__+0x309>
     34c:	00 c0       	rjmp	.+0      	; 0x34e <__SREG__+0x30f>
     34e:	ef ef       	ldi	r30, 0xFF	; 255
     350:	ff e3       	ldi	r31, 0x3F	; 63
     352:	31 97       	sbiw	r30, 0x01	; 1
     354:	f1 f7       	brne	.-4      	; 0x352 <__SREG__+0x313>
     356:	00 c0       	rjmp	.+0      	; 0x358 <__SREG__+0x319>
     358:	ef ef       	ldi	r30, 0xFF	; 255
     35a:	ff e3       	ldi	r31, 0x3F	; 63
     35c:	31 97       	sbiw	r30, 0x01	; 1
     35e:	f1 f7       	brne	.-4      	; 0x35c <__SREG__+0x31d>
     360:	00 c0       	rjmp	.+0      	; 0x362 <__SREG__+0x323>
     362:	ef ef       	ldi	r30, 0xFF	; 255
     364:	ff e3       	ldi	r31, 0x3F	; 63
     366:	31 97       	sbiw	r30, 0x01	; 1
     368:	f1 f7       	brne	.-4      	; 0x366 <__SREG__+0x327>
     36a:	00 c0       	rjmp	.+0      	; 0x36c <__SREG__+0x32d>
     36c:	ef ef       	ldi	r30, 0xFF	; 255
     36e:	ff e3       	ldi	r31, 0x3F	; 63
     370:	31 97       	sbiw	r30, 0x01	; 1
     372:	f1 f7       	brne	.-4      	; 0x370 <__SREG__+0x331>
     374:	00 c0       	rjmp	.+0      	; 0x376 <__SREG__+0x337>
     376:	ef ef       	ldi	r30, 0xFF	; 255
     378:	ff e3       	ldi	r31, 0x3F	; 63
     37a:	31 97       	sbiw	r30, 0x01	; 1
     37c:	f1 f7       	brne	.-4      	; 0x37a <__SREG__+0x33b>
     37e:	00 c0       	rjmp	.+0      	; 0x380 <__SREG__+0x341>
     380:	ef ef       	ldi	r30, 0xFF	; 255
     382:	ff e3       	ldi	r31, 0x3F	; 63
     384:	31 97       	sbiw	r30, 0x01	; 1
     386:	f1 f7       	brne	.-4      	; 0x384 <__SREG__+0x345>
     388:	00 c0       	rjmp	.+0      	; 0x38a <__SREG__+0x34b>
     38a:	ef ef       	ldi	r30, 0xFF	; 255
     38c:	ff e3       	ldi	r31, 0x3F	; 63
     38e:	31 97       	sbiw	r30, 0x01	; 1
     390:	f1 f7       	brne	.-4      	; 0x38e <__SREG__+0x34f>
     392:	00 c0       	rjmp	.+0      	; 0x394 <__SREG__+0x355>
     394:	ef ef       	ldi	r30, 0xFF	; 255
     396:	ff e3       	ldi	r31, 0x3F	; 63
     398:	31 97       	sbiw	r30, 0x01	; 1
     39a:	f1 f7       	brne	.-4      	; 0x398 <__SREG__+0x359>
     39c:	00 c0       	rjmp	.+0      	; 0x39e <__SREG__+0x35f>
     39e:	1a bc       	out	0x2a, r1	; 42
     3a0:	88 bd       	out	0x28, r24	; 40
     3a2:	13 bc       	out	0x23, r1	; 35
     3a4:	ef ef       	ldi	r30, 0xFF	; 255
     3a6:	ff e3       	ldi	r31, 0x3F	; 63
     3a8:	31 97       	sbiw	r30, 0x01	; 1
     3aa:	f1 f7       	brne	.-4      	; 0x3a8 <__SREG__+0x369>
     3ac:	00 c0       	rjmp	.+0      	; 0x3ae <__SREG__+0x36f>
     3ae:	ef ef       	ldi	r30, 0xFF	; 255
     3b0:	ff e3       	ldi	r31, 0x3F	; 63
     3b2:	31 97       	sbiw	r30, 0x01	; 1
     3b4:	f1 f7       	brne	.-4      	; 0x3b2 <__SREG__+0x373>
     3b6:	00 c0       	rjmp	.+0      	; 0x3b8 <__SREG__+0x379>
     3b8:	ef ef       	ldi	r30, 0xFF	; 255
     3ba:	ff e3       	ldi	r31, 0x3F	; 63
     3bc:	31 97       	sbiw	r30, 0x01	; 1
     3be:	f1 f7       	brne	.-4      	; 0x3bc <__SREG__+0x37d>
     3c0:	00 c0       	rjmp	.+0      	; 0x3c2 <__SREG__+0x383>
     3c2:	ef ef       	ldi	r30, 0xFF	; 255
     3c4:	ff e3       	ldi	r31, 0x3F	; 63
     3c6:	31 97       	sbiw	r30, 0x01	; 1
     3c8:	f1 f7       	brne	.-4      	; 0x3c6 <__SREG__+0x387>
     3ca:	00 c0       	rjmp	.+0      	; 0x3cc <__SREG__+0x38d>
     3cc:	ef ef       	ldi	r30, 0xFF	; 255
     3ce:	ff e3       	ldi	r31, 0x3F	; 63
     3d0:	31 97       	sbiw	r30, 0x01	; 1
     3d2:	f1 f7       	brne	.-4      	; 0x3d0 <__SREG__+0x391>
     3d4:	00 c0       	rjmp	.+0      	; 0x3d6 <__SREG__+0x397>
     3d6:	ef ef       	ldi	r30, 0xFF	; 255
     3d8:	ff e3       	ldi	r31, 0x3F	; 63
     3da:	31 97       	sbiw	r30, 0x01	; 1
     3dc:	f1 f7       	brne	.-4      	; 0x3da <__SREG__+0x39b>
     3de:	00 c0       	rjmp	.+0      	; 0x3e0 <__SREG__+0x3a1>
     3e0:	ef ef       	ldi	r30, 0xFF	; 255
     3e2:	ff e3       	ldi	r31, 0x3F	; 63
     3e4:	31 97       	sbiw	r30, 0x01	; 1
     3e6:	f1 f7       	brne	.-4      	; 0x3e4 <__SREG__+0x3a5>
     3e8:	00 c0       	rjmp	.+0      	; 0x3ea <__SREG__+0x3ab>
     3ea:	ef ef       	ldi	r30, 0xFF	; 255
     3ec:	ff e3       	ldi	r31, 0x3F	; 63
     3ee:	31 97       	sbiw	r30, 0x01	; 1
     3f0:	f1 f7       	brne	.-4      	; 0x3ee <__SREG__+0x3af>
     3f2:	00 c0       	rjmp	.+0      	; 0x3f4 <__SREG__+0x3b5>
     3f4:	ef ef       	ldi	r30, 0xFF	; 255
     3f6:	ff e3       	ldi	r31, 0x3F	; 63
     3f8:	31 97       	sbiw	r30, 0x01	; 1
     3fa:	f1 f7       	brne	.-4      	; 0x3f8 <__SREG__+0x3b9>
     3fc:	00 c0       	rjmp	.+0      	; 0x3fe <__SREG__+0x3bf>
     3fe:	ef ef       	ldi	r30, 0xFF	; 255
     400:	ff e3       	ldi	r31, 0x3F	; 63
     402:	31 97       	sbiw	r30, 0x01	; 1
     404:	f1 f7       	brne	.-4      	; 0x402 <__SREG__+0x3c3>
     406:	00 c0       	rjmp	.+0      	; 0x408 <__SREG__+0x3c9>
     408:	ef ef       	ldi	r30, 0xFF	; 255
     40a:	ff e3       	ldi	r31, 0x3F	; 63
     40c:	31 97       	sbiw	r30, 0x01	; 1
     40e:	f1 f7       	brne	.-4      	; 0x40c <__SREG__+0x3cd>
     410:	00 c0       	rjmp	.+0      	; 0x412 <__SREG__+0x3d3>
     412:	ef ef       	ldi	r30, 0xFF	; 255
     414:	ff e3       	ldi	r31, 0x3F	; 63
     416:	31 97       	sbiw	r30, 0x01	; 1
     418:	f1 f7       	brne	.-4      	; 0x416 <__SREG__+0x3d7>
     41a:	00 c0       	rjmp	.+0      	; 0x41c <__SREG__+0x3dd>
     41c:	ef ef       	ldi	r30, 0xFF	; 255
     41e:	ff e3       	ldi	r31, 0x3F	; 63
     420:	31 97       	sbiw	r30, 0x01	; 1
     422:	f1 f7       	brne	.-4      	; 0x420 <__SREG__+0x3e1>
     424:	00 c0       	rjmp	.+0      	; 0x426 <__SREG__+0x3e7>
     426:	ef ef       	ldi	r30, 0xFF	; 255
     428:	ff e3       	ldi	r31, 0x3F	; 63
     42a:	31 97       	sbiw	r30, 0x01	; 1
     42c:	f1 f7       	brne	.-4      	; 0x42a <__SREG__+0x3eb>
     42e:	00 c0       	rjmp	.+0      	; 0x430 <__SREG__+0x3f1>
     430:	ef ef       	ldi	r30, 0xFF	; 255
     432:	ff e3       	ldi	r31, 0x3F	; 63
     434:	31 97       	sbiw	r30, 0x01	; 1
     436:	f1 f7       	brne	.-4      	; 0x434 <__SREG__+0x3f5>
     438:	00 c0       	rjmp	.+0      	; 0x43a <__SREG__+0x3fb>
     43a:	ef ef       	ldi	r30, 0xFF	; 255
     43c:	ff e3       	ldi	r31, 0x3F	; 63
     43e:	31 97       	sbiw	r30, 0x01	; 1
     440:	f1 f7       	brne	.-4      	; 0x43e <__SREG__+0x3ff>
     442:	00 c0       	rjmp	.+0      	; 0x444 <__SREG__+0x405>
     444:	ef ef       	ldi	r30, 0xFF	; 255
     446:	ff e3       	ldi	r31, 0x3F	; 63
     448:	31 97       	sbiw	r30, 0x01	; 1
     44a:	f1 f7       	brne	.-4      	; 0x448 <__SREG__+0x409>
     44c:	00 c0       	rjmp	.+0      	; 0x44e <__SREG__+0x40f>
     44e:	ef ef       	ldi	r30, 0xFF	; 255
     450:	ff e3       	ldi	r31, 0x3F	; 63
     452:	31 97       	sbiw	r30, 0x01	; 1
     454:	f1 f7       	brne	.-4      	; 0x452 <__SREG__+0x413>
     456:	00 c0       	rjmp	.+0      	; 0x458 <__SREG__+0x419>
     458:	ef ef       	ldi	r30, 0xFF	; 255
     45a:	ff e3       	ldi	r31, 0x3F	; 63
     45c:	31 97       	sbiw	r30, 0x01	; 1
     45e:	f1 f7       	brne	.-4      	; 0x45c <__SREG__+0x41d>
     460:	00 c0       	rjmp	.+0      	; 0x462 <__stack+0x3>
     462:	ef ef       	ldi	r30, 0xFF	; 255
     464:	ff e3       	ldi	r31, 0x3F	; 63
     466:	31 97       	sbiw	r30, 0x01	; 1
     468:	f1 f7       	brne	.-4      	; 0x466 <__stack+0x7>
     46a:	00 c0       	rjmp	.+0      	; 0x46c <__stack+0xd>
     46c:	ef ef       	ldi	r30, 0xFF	; 255
     46e:	ff e3       	ldi	r31, 0x3F	; 63
     470:	31 97       	sbiw	r30, 0x01	; 1
     472:	f1 f7       	brne	.-4      	; 0x470 <__stack+0x11>
     474:	00 c0       	rjmp	.+0      	; 0x476 <__stack+0x17>
     476:	ef ef       	ldi	r30, 0xFF	; 255
     478:	ff e3       	ldi	r31, 0x3F	; 63
     47a:	31 97       	sbiw	r30, 0x01	; 1
     47c:	f1 f7       	brne	.-4      	; 0x47a <__stack+0x1b>
     47e:	00 c0       	rjmp	.+0      	; 0x480 <__stack+0x21>
     480:	ef ef       	ldi	r30, 0xFF	; 255
     482:	ff e3       	ldi	r31, 0x3F	; 63
     484:	31 97       	sbiw	r30, 0x01	; 1
     486:	f1 f7       	brne	.-4      	; 0x484 <__stack+0x25>
     488:	00 c0       	rjmp	.+0      	; 0x48a <__stack+0x2b>
     48a:	ef ef       	ldi	r30, 0xFF	; 255
     48c:	ff e3       	ldi	r31, 0x3F	; 63
     48e:	31 97       	sbiw	r30, 0x01	; 1
     490:	f1 f7       	brne	.-4      	; 0x48e <__stack+0x2f>
     492:	00 c0       	rjmp	.+0      	; 0x494 <__stack+0x35>
     494:	ef ef       	ldi	r30, 0xFF	; 255
     496:	ff e3       	ldi	r31, 0x3F	; 63
     498:	31 97       	sbiw	r30, 0x01	; 1
     49a:	f1 f7       	brne	.-4      	; 0x498 <__stack+0x39>
     49c:	00 c0       	rjmp	.+0      	; 0x49e <__stack+0x3f>
     49e:	ef ef       	ldi	r30, 0xFF	; 255
     4a0:	ff e3       	ldi	r31, 0x3F	; 63
     4a2:	31 97       	sbiw	r30, 0x01	; 1
     4a4:	f1 f7       	brne	.-4      	; 0x4a2 <__stack+0x43>
     4a6:	00 c0       	rjmp	.+0      	; 0x4a8 <__stack+0x49>
     4a8:	ef ef       	ldi	r30, 0xFF	; 255
     4aa:	ff e3       	ldi	r31, 0x3F	; 63
     4ac:	31 97       	sbiw	r30, 0x01	; 1
     4ae:	f1 f7       	brne	.-4      	; 0x4ac <__stack+0x4d>
     4b0:	00 c0       	rjmp	.+0      	; 0x4b2 <__stack+0x53>
     4b2:	ef ef       	ldi	r30, 0xFF	; 255
     4b4:	ff e3       	ldi	r31, 0x3F	; 63
     4b6:	31 97       	sbiw	r30, 0x01	; 1
     4b8:	f1 f7       	brne	.-4      	; 0x4b6 <__stack+0x57>
     4ba:	00 c0       	rjmp	.+0      	; 0x4bc <__stack+0x5d>
     4bc:	ef ef       	ldi	r30, 0xFF	; 255
     4be:	ff e3       	ldi	r31, 0x3F	; 63
     4c0:	31 97       	sbiw	r30, 0x01	; 1
     4c2:	f1 f7       	brne	.-4      	; 0x4c0 <__stack+0x61>
     4c4:	00 c0       	rjmp	.+0      	; 0x4c6 <__stack+0x67>
     4c6:	ef ef       	ldi	r30, 0xFF	; 255
     4c8:	ff e3       	ldi	r31, 0x3F	; 63
     4ca:	31 97       	sbiw	r30, 0x01	; 1
     4cc:	f1 f7       	brne	.-4      	; 0x4ca <__stack+0x6b>
     4ce:	00 c0       	rjmp	.+0      	; 0x4d0 <__stack+0x71>
     4d0:	ef ef       	ldi	r30, 0xFF	; 255
     4d2:	ff e3       	ldi	r31, 0x3F	; 63
     4d4:	31 97       	sbiw	r30, 0x01	; 1
     4d6:	f1 f7       	brne	.-4      	; 0x4d4 <__stack+0x75>
     4d8:	00 c0       	rjmp	.+0      	; 0x4da <__stack+0x7b>
     4da:	ef ef       	ldi	r30, 0xFF	; 255
     4dc:	ff e3       	ldi	r31, 0x3F	; 63
     4de:	31 97       	sbiw	r30, 0x01	; 1
     4e0:	f1 f7       	brne	.-4      	; 0x4de <__stack+0x7f>
     4e2:	00 c0       	rjmp	.+0      	; 0x4e4 <__stack+0x85>
     4e4:	ef ef       	ldi	r30, 0xFF	; 255
     4e6:	ff e3       	ldi	r31, 0x3F	; 63
     4e8:	31 97       	sbiw	r30, 0x01	; 1
     4ea:	f1 f7       	brne	.-4      	; 0x4e8 <__stack+0x89>
     4ec:	00 c0       	rjmp	.+0      	; 0x4ee <__stack+0x8f>
     4ee:	ef ef       	ldi	r30, 0xFF	; 255
     4f0:	ff e3       	ldi	r31, 0x3F	; 63
     4f2:	31 97       	sbiw	r30, 0x01	; 1
     4f4:	f1 f7       	brne	.-4      	; 0x4f2 <__stack+0x93>
     4f6:	00 c0       	rjmp	.+0      	; 0x4f8 <__stack+0x99>
     4f8:	ef ef       	ldi	r30, 0xFF	; 255
     4fa:	ff e3       	ldi	r31, 0x3F	; 63
     4fc:	31 97       	sbiw	r30, 0x01	; 1
     4fe:	f1 f7       	brne	.-4      	; 0x4fc <__stack+0x9d>
     500:	00 c0       	rjmp	.+0      	; 0x502 <__stack+0xa3>
     502:	ef ef       	ldi	r30, 0xFF	; 255
     504:	ff e3       	ldi	r31, 0x3F	; 63
     506:	31 97       	sbiw	r30, 0x01	; 1
     508:	f1 f7       	brne	.-4      	; 0x506 <__stack+0xa7>
     50a:	00 c0       	rjmp	.+0      	; 0x50c <__stack+0xad>
     50c:	ef ef       	ldi	r30, 0xFF	; 255
     50e:	ff e3       	ldi	r31, 0x3F	; 63
     510:	31 97       	sbiw	r30, 0x01	; 1
     512:	f1 f7       	brne	.-4      	; 0x510 <__stack+0xb1>
     514:	00 c0       	rjmp	.+0      	; 0x516 <__stack+0xb7>
     516:	ef ef       	ldi	r30, 0xFF	; 255
     518:	ff e3       	ldi	r31, 0x3F	; 63
     51a:	31 97       	sbiw	r30, 0x01	; 1
     51c:	f1 f7       	brne	.-4      	; 0x51a <__stack+0xbb>
     51e:	00 c0       	rjmp	.+0      	; 0x520 <__stack+0xc1>
     520:	ef ef       	ldi	r30, 0xFF	; 255
     522:	ff e3       	ldi	r31, 0x3F	; 63
     524:	31 97       	sbiw	r30, 0x01	; 1
     526:	f1 f7       	brne	.-4      	; 0x524 <__stack+0xc5>
     528:	00 c0       	rjmp	.+0      	; 0x52a <__stack+0xcb>
     52a:	ef ef       	ldi	r30, 0xFF	; 255
     52c:	ff e3       	ldi	r31, 0x3F	; 63
     52e:	31 97       	sbiw	r30, 0x01	; 1
     530:	f1 f7       	brne	.-4      	; 0x52e <__stack+0xcf>
     532:	00 c0       	rjmp	.+0      	; 0x534 <__stack+0xd5>
     534:	ef ef       	ldi	r30, 0xFF	; 255
     536:	ff e3       	ldi	r31, 0x3F	; 63
     538:	31 97       	sbiw	r30, 0x01	; 1
     53a:	f1 f7       	brne	.-4      	; 0x538 <__stack+0xd9>
     53c:	00 c0       	rjmp	.+0      	; 0x53e <__stack+0xdf>
     53e:	ef ef       	ldi	r30, 0xFF	; 255
     540:	ff e3       	ldi	r31, 0x3F	; 63
     542:	31 97       	sbiw	r30, 0x01	; 1
     544:	f1 f7       	brne	.-4      	; 0x542 <__stack+0xe3>
     546:	00 c0       	rjmp	.+0      	; 0x548 <__stack+0xe9>
     548:	ef ef       	ldi	r30, 0xFF	; 255
     54a:	ff e3       	ldi	r31, 0x3F	; 63
     54c:	31 97       	sbiw	r30, 0x01	; 1
     54e:	f1 f7       	brne	.-4      	; 0x54c <__stack+0xed>
     550:	00 c0       	rjmp	.+0      	; 0x552 <__stack+0xf3>
     552:	ef ef       	ldi	r30, 0xFF	; 255
     554:	ff e3       	ldi	r31, 0x3F	; 63
     556:	31 97       	sbiw	r30, 0x01	; 1
     558:	f1 f7       	brne	.-4      	; 0x556 <__stack+0xf7>
     55a:	00 c0       	rjmp	.+0      	; 0x55c <__stack+0xfd>
     55c:	ef ef       	ldi	r30, 0xFF	; 255
     55e:	ff e3       	ldi	r31, 0x3F	; 63
     560:	31 97       	sbiw	r30, 0x01	; 1
     562:	f1 f7       	brne	.-4      	; 0x560 <__stack+0x101>
     564:	00 c0       	rjmp	.+0      	; 0x566 <__stack+0x107>
     566:	ef ef       	ldi	r30, 0xFF	; 255
     568:	ff e3       	ldi	r31, 0x3F	; 63
     56a:	31 97       	sbiw	r30, 0x01	; 1
     56c:	f1 f7       	brne	.-4      	; 0x56a <__stack+0x10b>
     56e:	00 c0       	rjmp	.+0      	; 0x570 <__stack+0x111>
     570:	ef ef       	ldi	r30, 0xFF	; 255
     572:	ff e3       	ldi	r31, 0x3F	; 63
     574:	31 97       	sbiw	r30, 0x01	; 1
     576:	f1 f7       	brne	.-4      	; 0x574 <__stack+0x115>
     578:	00 c0       	rjmp	.+0      	; 0x57a <__stack+0x11b>
     57a:	ef ef       	ldi	r30, 0xFF	; 255
     57c:	ff e3       	ldi	r31, 0x3F	; 63
     57e:	31 97       	sbiw	r30, 0x01	; 1
     580:	f1 f7       	brne	.-4      	; 0x57e <__stack+0x11f>
     582:	00 c0       	rjmp	.+0      	; 0x584 <__stack+0x125>
     584:	ef ef       	ldi	r30, 0xFF	; 255
     586:	ff e3       	ldi	r31, 0x3F	; 63
     588:	31 97       	sbiw	r30, 0x01	; 1
     58a:	f1 f7       	brne	.-4      	; 0x588 <__stack+0x129>
     58c:	00 c0       	rjmp	.+0      	; 0x58e <__stack+0x12f>
     58e:	ef ef       	ldi	r30, 0xFF	; 255
     590:	ff e3       	ldi	r31, 0x3F	; 63
     592:	31 97       	sbiw	r30, 0x01	; 1
     594:	f1 f7       	brne	.-4      	; 0x592 <__stack+0x133>
     596:	00 c0       	rjmp	.+0      	; 0x598 <__stack+0x139>
     598:	ef ef       	ldi	r30, 0xFF	; 255
     59a:	ff e3       	ldi	r31, 0x3F	; 63
     59c:	31 97       	sbiw	r30, 0x01	; 1
     59e:	f1 f7       	brne	.-4      	; 0x59c <__stack+0x13d>
     5a0:	00 c0       	rjmp	.+0      	; 0x5a2 <__stack+0x143>
     5a2:	ef ef       	ldi	r30, 0xFF	; 255
     5a4:	ff e3       	ldi	r31, 0x3F	; 63
     5a6:	31 97       	sbiw	r30, 0x01	; 1
     5a8:	f1 f7       	brne	.-4      	; 0x5a6 <__stack+0x147>
     5aa:	00 c0       	rjmp	.+0      	; 0x5ac <__stack+0x14d>
     5ac:	ef ef       	ldi	r30, 0xFF	; 255
     5ae:	ff e3       	ldi	r31, 0x3F	; 63
     5b0:	31 97       	sbiw	r30, 0x01	; 1
     5b2:	f1 f7       	brne	.-4      	; 0x5b0 <__stack+0x151>
     5b4:	00 c0       	rjmp	.+0      	; 0x5b6 <__stack+0x157>
     5b6:	ef ef       	ldi	r30, 0xFF	; 255
     5b8:	ff e3       	ldi	r31, 0x3F	; 63
     5ba:	31 97       	sbiw	r30, 0x01	; 1
     5bc:	f1 f7       	brne	.-4      	; 0x5ba <__stack+0x15b>
     5be:	00 c0       	rjmp	.+0      	; 0x5c0 <__stack+0x161>
     5c0:	ef ef       	ldi	r30, 0xFF	; 255
     5c2:	ff e3       	ldi	r31, 0x3F	; 63
     5c4:	31 97       	sbiw	r30, 0x01	; 1
     5c6:	f1 f7       	brne	.-4      	; 0x5c4 <__stack+0x165>
     5c8:	00 c0       	rjmp	.+0      	; 0x5ca <__stack+0x16b>
     5ca:	ef ef       	ldi	r30, 0xFF	; 255
     5cc:	ff e3       	ldi	r31, 0x3F	; 63
     5ce:	31 97       	sbiw	r30, 0x01	; 1
     5d0:	f1 f7       	brne	.-4      	; 0x5ce <__stack+0x16f>
     5d2:	00 c0       	rjmp	.+0      	; 0x5d4 <__stack+0x175>
     5d4:	ef ef       	ldi	r30, 0xFF	; 255
     5d6:	ff e3       	ldi	r31, 0x3F	; 63
     5d8:	31 97       	sbiw	r30, 0x01	; 1
     5da:	f1 f7       	brne	.-4      	; 0x5d8 <__stack+0x179>
     5dc:	00 c0       	rjmp	.+0      	; 0x5de <__stack+0x17f>
     5de:	ef ef       	ldi	r30, 0xFF	; 255
     5e0:	ff e3       	ldi	r31, 0x3F	; 63
     5e2:	31 97       	sbiw	r30, 0x01	; 1
     5e4:	f1 f7       	brne	.-4      	; 0x5e2 <__stack+0x183>
     5e6:	00 c0       	rjmp	.+0      	; 0x5e8 <__stack+0x189>
     5e8:	ef ef       	ldi	r30, 0xFF	; 255
     5ea:	ff e3       	ldi	r31, 0x3F	; 63
     5ec:	31 97       	sbiw	r30, 0x01	; 1
     5ee:	f1 f7       	brne	.-4      	; 0x5ec <__stack+0x18d>
     5f0:	00 c0       	rjmp	.+0      	; 0x5f2 <__stack+0x193>
     5f2:	ef ef       	ldi	r30, 0xFF	; 255
     5f4:	ff e3       	ldi	r31, 0x3F	; 63
     5f6:	31 97       	sbiw	r30, 0x01	; 1
     5f8:	f1 f7       	brne	.-4      	; 0x5f6 <__stack+0x197>
     5fa:	00 c0       	rjmp	.+0      	; 0x5fc <__stack+0x19d>
     5fc:	ef ef       	ldi	r30, 0xFF	; 255
     5fe:	ff e3       	ldi	r31, 0x3F	; 63
     600:	31 97       	sbiw	r30, 0x01	; 1
     602:	f1 f7       	brne	.-4      	; 0x600 <__stack+0x1a1>
     604:	00 c0       	rjmp	.+0      	; 0x606 <__stack+0x1a7>
     606:	ef ef       	ldi	r30, 0xFF	; 255
     608:	ff e3       	ldi	r31, 0x3F	; 63
     60a:	31 97       	sbiw	r30, 0x01	; 1
     60c:	f1 f7       	brne	.-4      	; 0x60a <__stack+0x1ab>
     60e:	00 c0       	rjmp	.+0      	; 0x610 <__stack+0x1b1>
     610:	ef ef       	ldi	r30, 0xFF	; 255
     612:	ff e3       	ldi	r31, 0x3F	; 63
     614:	31 97       	sbiw	r30, 0x01	; 1
     616:	f1 f7       	brne	.-4      	; 0x614 <__stack+0x1b5>
     618:	00 c0       	rjmp	.+0      	; 0x61a <__stack+0x1bb>
     61a:	ef ef       	ldi	r30, 0xFF	; 255
     61c:	ff e3       	ldi	r31, 0x3F	; 63
     61e:	31 97       	sbiw	r30, 0x01	; 1
     620:	f1 f7       	brne	.-4      	; 0x61e <__stack+0x1bf>
     622:	00 c0       	rjmp	.+0      	; 0x624 <__stack+0x1c5>
     624:	ef ef       	ldi	r30, 0xFF	; 255
     626:	ff e3       	ldi	r31, 0x3F	; 63
     628:	31 97       	sbiw	r30, 0x01	; 1
     62a:	f1 f7       	brne	.-4      	; 0x628 <__stack+0x1c9>
     62c:	00 c0       	rjmp	.+0      	; 0x62e <__stack+0x1cf>
     62e:	ef ef       	ldi	r30, 0xFF	; 255
     630:	ff e3       	ldi	r31, 0x3F	; 63
     632:	31 97       	sbiw	r30, 0x01	; 1
     634:	f1 f7       	brne	.-4      	; 0x632 <__stack+0x1d3>
     636:	00 c0       	rjmp	.+0      	; 0x638 <__stack+0x1d9>
     638:	ef ef       	ldi	r30, 0xFF	; 255
     63a:	ff e3       	ldi	r31, 0x3F	; 63
     63c:	31 97       	sbiw	r30, 0x01	; 1
     63e:	f1 f7       	brne	.-4      	; 0x63c <__stack+0x1dd>
     640:	00 c0       	rjmp	.+0      	; 0x642 <__stack+0x1e3>
     642:	ef ef       	ldi	r30, 0xFF	; 255
     644:	ff e3       	ldi	r31, 0x3F	; 63
     646:	31 97       	sbiw	r30, 0x01	; 1
     648:	f1 f7       	brne	.-4      	; 0x646 <__stack+0x1e7>
     64a:	00 c0       	rjmp	.+0      	; 0x64c <__stack+0x1ed>
     64c:	ef ef       	ldi	r30, 0xFF	; 255
     64e:	ff e3       	ldi	r31, 0x3F	; 63
     650:	31 97       	sbiw	r30, 0x01	; 1
     652:	f1 f7       	brne	.-4      	; 0x650 <__stack+0x1f1>
     654:	00 c0       	rjmp	.+0      	; 0x656 <__stack+0x1f7>
     656:	ef ef       	ldi	r30, 0xFF	; 255
     658:	ff e3       	ldi	r31, 0x3F	; 63
     65a:	31 97       	sbiw	r30, 0x01	; 1
     65c:	f1 f7       	brne	.-4      	; 0x65a <__stack+0x1fb>
     65e:	00 c0       	rjmp	.+0      	; 0x660 <__stack+0x201>
     660:	ef ef       	ldi	r30, 0xFF	; 255
     662:	ff e3       	ldi	r31, 0x3F	; 63
     664:	31 97       	sbiw	r30, 0x01	; 1
     666:	f1 f7       	brne	.-4      	; 0x664 <__stack+0x205>
     668:	00 c0       	rjmp	.+0      	; 0x66a <__stack+0x20b>
     66a:	ef ef       	ldi	r30, 0xFF	; 255
     66c:	ff e3       	ldi	r31, 0x3F	; 63
     66e:	31 97       	sbiw	r30, 0x01	; 1
     670:	f1 f7       	brne	.-4      	; 0x66e <__stack+0x20f>
     672:	00 c0       	rjmp	.+0      	; 0x674 <__stack+0x215>
     674:	ef ef       	ldi	r30, 0xFF	; 255
     676:	ff e3       	ldi	r31, 0x3F	; 63
     678:	31 97       	sbiw	r30, 0x01	; 1
     67a:	f1 f7       	brne	.-4      	; 0x678 <__stack+0x219>
     67c:	00 c0       	rjmp	.+0      	; 0x67e <__stack+0x21f>
     67e:	ef ef       	ldi	r30, 0xFF	; 255
     680:	ff e3       	ldi	r31, 0x3F	; 63
     682:	31 97       	sbiw	r30, 0x01	; 1
     684:	f1 f7       	brne	.-4      	; 0x682 <__stack+0x223>
     686:	00 c0       	rjmp	.+0      	; 0x688 <__stack+0x229>
     688:	ef ef       	ldi	r30, 0xFF	; 255
     68a:	ff e3       	ldi	r31, 0x3F	; 63
     68c:	31 97       	sbiw	r30, 0x01	; 1
     68e:	f1 f7       	brne	.-4      	; 0x68c <__stack+0x22d>
     690:	00 c0       	rjmp	.+0      	; 0x692 <__stack+0x233>
     692:	ef ef       	ldi	r30, 0xFF	; 255
     694:	ff e3       	ldi	r31, 0x3F	; 63
     696:	31 97       	sbiw	r30, 0x01	; 1
     698:	f1 f7       	brne	.-4      	; 0x696 <__stack+0x237>
     69a:	00 c0       	rjmp	.+0      	; 0x69c <__stack+0x23d>
     69c:	ef ef       	ldi	r30, 0xFF	; 255
     69e:	ff e3       	ldi	r31, 0x3F	; 63
     6a0:	31 97       	sbiw	r30, 0x01	; 1
     6a2:	f1 f7       	brne	.-4      	; 0x6a0 <__stack+0x241>
     6a4:	00 c0       	rjmp	.+0      	; 0x6a6 <__stack+0x247>
     6a6:	ef ef       	ldi	r30, 0xFF	; 255
     6a8:	ff e3       	ldi	r31, 0x3F	; 63
     6aa:	31 97       	sbiw	r30, 0x01	; 1
     6ac:	f1 f7       	brne	.-4      	; 0x6aa <__stack+0x24b>
     6ae:	00 c0       	rjmp	.+0      	; 0x6b0 <__stack+0x251>
     6b0:	ef ef       	ldi	r30, 0xFF	; 255
     6b2:	ff e3       	ldi	r31, 0x3F	; 63
     6b4:	31 97       	sbiw	r30, 0x01	; 1
     6b6:	f1 f7       	brne	.-4      	; 0x6b4 <__stack+0x255>
     6b8:	00 c0       	rjmp	.+0      	; 0x6ba <__stack+0x25b>
     6ba:	ef ef       	ldi	r30, 0xFF	; 255
     6bc:	ff e3       	ldi	r31, 0x3F	; 63
     6be:	31 97       	sbiw	r30, 0x01	; 1
     6c0:	f1 f7       	brne	.-4      	; 0x6be <__stack+0x25f>
     6c2:	00 c0       	rjmp	.+0      	; 0x6c4 <__stack+0x265>
     6c4:	1a bc       	out	0x2a, r1	; 42
     6c6:	18 bc       	out	0x28, r1	; 40
     6c8:	83 bd       	out	0x23, r24	; 35
     6ca:	ef ef       	ldi	r30, 0xFF	; 255
     6cc:	ff e3       	ldi	r31, 0x3F	; 63
     6ce:	31 97       	sbiw	r30, 0x01	; 1
     6d0:	f1 f7       	brne	.-4      	; 0x6ce <__stack+0x26f>
     6d2:	00 c0       	rjmp	.+0      	; 0x6d4 <__stack+0x275>
     6d4:	ef ef       	ldi	r30, 0xFF	; 255
     6d6:	ff e3       	ldi	r31, 0x3F	; 63
     6d8:	31 97       	sbiw	r30, 0x01	; 1
     6da:	f1 f7       	brne	.-4      	; 0x6d8 <__stack+0x279>
     6dc:	00 c0       	rjmp	.+0      	; 0x6de <__stack+0x27f>
     6de:	ef ef       	ldi	r30, 0xFF	; 255
     6e0:	ff e3       	ldi	r31, 0x3F	; 63
     6e2:	31 97       	sbiw	r30, 0x01	; 1
     6e4:	f1 f7       	brne	.-4      	; 0x6e2 <__stack+0x283>
     6e6:	00 c0       	rjmp	.+0      	; 0x6e8 <__stack+0x289>
     6e8:	ef ef       	ldi	r30, 0xFF	; 255
     6ea:	ff e3       	ldi	r31, 0x3F	; 63
     6ec:	31 97       	sbiw	r30, 0x01	; 1
     6ee:	f1 f7       	brne	.-4      	; 0x6ec <__stack+0x28d>
     6f0:	00 c0       	rjmp	.+0      	; 0x6f2 <__stack+0x293>
     6f2:	ef ef       	ldi	r30, 0xFF	; 255
     6f4:	ff e3       	ldi	r31, 0x3F	; 63
     6f6:	31 97       	sbiw	r30, 0x01	; 1
     6f8:	f1 f7       	brne	.-4      	; 0x6f6 <__stack+0x297>
     6fa:	00 c0       	rjmp	.+0      	; 0x6fc <__stack+0x29d>
     6fc:	ef ef       	ldi	r30, 0xFF	; 255
     6fe:	ff e3       	ldi	r31, 0x3F	; 63
     700:	31 97       	sbiw	r30, 0x01	; 1
     702:	f1 f7       	brne	.-4      	; 0x700 <__stack+0x2a1>
     704:	00 c0       	rjmp	.+0      	; 0x706 <__stack+0x2a7>
     706:	ef ef       	ldi	r30, 0xFF	; 255
     708:	ff e3       	ldi	r31, 0x3F	; 63
     70a:	31 97       	sbiw	r30, 0x01	; 1
     70c:	f1 f7       	brne	.-4      	; 0x70a <__stack+0x2ab>
     70e:	00 c0       	rjmp	.+0      	; 0x710 <__stack+0x2b1>
     710:	ef ef       	ldi	r30, 0xFF	; 255
     712:	ff e3       	ldi	r31, 0x3F	; 63
     714:	31 97       	sbiw	r30, 0x01	; 1
     716:	f1 f7       	brne	.-4      	; 0x714 <__stack+0x2b5>
     718:	00 c0       	rjmp	.+0      	; 0x71a <__stack+0x2bb>
     71a:	ef ef       	ldi	r30, 0xFF	; 255
     71c:	ff e3       	ldi	r31, 0x3F	; 63
     71e:	31 97       	sbiw	r30, 0x01	; 1
     720:	f1 f7       	brne	.-4      	; 0x71e <__stack+0x2bf>
     722:	00 c0       	rjmp	.+0      	; 0x724 <__stack+0x2c5>
     724:	ef ef       	ldi	r30, 0xFF	; 255
     726:	ff e3       	ldi	r31, 0x3F	; 63
     728:	31 97       	sbiw	r30, 0x01	; 1
     72a:	f1 f7       	brne	.-4      	; 0x728 <__stack+0x2c9>
     72c:	00 c0       	rjmp	.+0      	; 0x72e <__stack+0x2cf>
     72e:	ef ef       	ldi	r30, 0xFF	; 255
     730:	ff e3       	ldi	r31, 0x3F	; 63
     732:	31 97       	sbiw	r30, 0x01	; 1
     734:	f1 f7       	brne	.-4      	; 0x732 <__stack+0x2d3>
     736:	00 c0       	rjmp	.+0      	; 0x738 <__stack+0x2d9>
     738:	ef ef       	ldi	r30, 0xFF	; 255
     73a:	ff e3       	ldi	r31, 0x3F	; 63
     73c:	31 97       	sbiw	r30, 0x01	; 1
     73e:	f1 f7       	brne	.-4      	; 0x73c <__stack+0x2dd>
     740:	00 c0       	rjmp	.+0      	; 0x742 <__stack+0x2e3>
     742:	ef ef       	ldi	r30, 0xFF	; 255
     744:	ff e3       	ldi	r31, 0x3F	; 63
     746:	31 97       	sbiw	r30, 0x01	; 1
     748:	f1 f7       	brne	.-4      	; 0x746 <__stack+0x2e7>
     74a:	00 c0       	rjmp	.+0      	; 0x74c <__stack+0x2ed>
     74c:	ef ef       	ldi	r30, 0xFF	; 255
     74e:	ff e3       	ldi	r31, 0x3F	; 63
     750:	31 97       	sbiw	r30, 0x01	; 1
     752:	f1 f7       	brne	.-4      	; 0x750 <__stack+0x2f1>
     754:	00 c0       	rjmp	.+0      	; 0x756 <__stack+0x2f7>
     756:	ef ef       	ldi	r30, 0xFF	; 255
     758:	ff e3       	ldi	r31, 0x3F	; 63
     75a:	31 97       	sbiw	r30, 0x01	; 1
     75c:	f1 f7       	brne	.-4      	; 0x75a <__stack+0x2fb>
     75e:	00 c0       	rjmp	.+0      	; 0x760 <__stack+0x301>
     760:	ef ef       	ldi	r30, 0xFF	; 255
     762:	ff e3       	ldi	r31, 0x3F	; 63
     764:	31 97       	sbiw	r30, 0x01	; 1
     766:	f1 f7       	brne	.-4      	; 0x764 <__stack+0x305>
     768:	00 c0       	rjmp	.+0      	; 0x76a <__stack+0x30b>
     76a:	ef ef       	ldi	r30, 0xFF	; 255
     76c:	ff e3       	ldi	r31, 0x3F	; 63
     76e:	31 97       	sbiw	r30, 0x01	; 1
     770:	f1 f7       	brne	.-4      	; 0x76e <__stack+0x30f>
     772:	00 c0       	rjmp	.+0      	; 0x774 <__stack+0x315>
     774:	ef ef       	ldi	r30, 0xFF	; 255
     776:	ff e3       	ldi	r31, 0x3F	; 63
     778:	31 97       	sbiw	r30, 0x01	; 1
     77a:	f1 f7       	brne	.-4      	; 0x778 <__stack+0x319>
     77c:	00 c0       	rjmp	.+0      	; 0x77e <__stack+0x31f>
     77e:	ef ef       	ldi	r30, 0xFF	; 255
     780:	ff e3       	ldi	r31, 0x3F	; 63
     782:	31 97       	sbiw	r30, 0x01	; 1
     784:	f1 f7       	brne	.-4      	; 0x782 <__stack+0x323>
     786:	00 c0       	rjmp	.+0      	; 0x788 <__stack+0x329>
     788:	ef ef       	ldi	r30, 0xFF	; 255
     78a:	ff e3       	ldi	r31, 0x3F	; 63
     78c:	31 97       	sbiw	r30, 0x01	; 1
     78e:	f1 f7       	brne	.-4      	; 0x78c <__stack+0x32d>
     790:	00 c0       	rjmp	.+0      	; 0x792 <__stack+0x333>
     792:	ef ef       	ldi	r30, 0xFF	; 255
     794:	ff e3       	ldi	r31, 0x3F	; 63
     796:	31 97       	sbiw	r30, 0x01	; 1
     798:	f1 f7       	brne	.-4      	; 0x796 <__stack+0x337>
     79a:	00 c0       	rjmp	.+0      	; 0x79c <__stack+0x33d>
     79c:	ef ef       	ldi	r30, 0xFF	; 255
     79e:	ff e3       	ldi	r31, 0x3F	; 63
     7a0:	31 97       	sbiw	r30, 0x01	; 1
     7a2:	f1 f7       	brne	.-4      	; 0x7a0 <__stack+0x341>
     7a4:	00 c0       	rjmp	.+0      	; 0x7a6 <__stack+0x347>
     7a6:	ef ef       	ldi	r30, 0xFF	; 255
     7a8:	ff e3       	ldi	r31, 0x3F	; 63
     7aa:	31 97       	sbiw	r30, 0x01	; 1
     7ac:	f1 f7       	brne	.-4      	; 0x7aa <__stack+0x34b>
     7ae:	00 c0       	rjmp	.+0      	; 0x7b0 <__stack+0x351>
     7b0:	ef ef       	ldi	r30, 0xFF	; 255
     7b2:	ff e3       	ldi	r31, 0x3F	; 63
     7b4:	31 97       	sbiw	r30, 0x01	; 1
     7b6:	f1 f7       	brne	.-4      	; 0x7b4 <__stack+0x355>
     7b8:	00 c0       	rjmp	.+0      	; 0x7ba <__stack+0x35b>
     7ba:	ef ef       	ldi	r30, 0xFF	; 255
     7bc:	ff e3       	ldi	r31, 0x3F	; 63
     7be:	31 97       	sbiw	r30, 0x01	; 1
     7c0:	f1 f7       	brne	.-4      	; 0x7be <__stack+0x35f>
     7c2:	00 c0       	rjmp	.+0      	; 0x7c4 <__stack+0x365>
     7c4:	ef ef       	ldi	r30, 0xFF	; 255
     7c6:	ff e3       	ldi	r31, 0x3F	; 63
     7c8:	31 97       	sbiw	r30, 0x01	; 1
     7ca:	f1 f7       	brne	.-4      	; 0x7c8 <__stack+0x369>
     7cc:	00 c0       	rjmp	.+0      	; 0x7ce <__stack+0x36f>
     7ce:	ef ef       	ldi	r30, 0xFF	; 255
     7d0:	ff e3       	ldi	r31, 0x3F	; 63
     7d2:	31 97       	sbiw	r30, 0x01	; 1
     7d4:	f1 f7       	brne	.-4      	; 0x7d2 <__stack+0x373>
     7d6:	00 c0       	rjmp	.+0      	; 0x7d8 <__stack+0x379>
     7d8:	ef ef       	ldi	r30, 0xFF	; 255
     7da:	ff e3       	ldi	r31, 0x3F	; 63
     7dc:	31 97       	sbiw	r30, 0x01	; 1
     7de:	f1 f7       	brne	.-4      	; 0x7dc <__stack+0x37d>
     7e0:	00 c0       	rjmp	.+0      	; 0x7e2 <__stack+0x383>
     7e2:	ef ef       	ldi	r30, 0xFF	; 255
     7e4:	ff e3       	ldi	r31, 0x3F	; 63
     7e6:	31 97       	sbiw	r30, 0x01	; 1
     7e8:	f1 f7       	brne	.-4      	; 0x7e6 <__stack+0x387>
     7ea:	00 c0       	rjmp	.+0      	; 0x7ec <__stack+0x38d>
     7ec:	ef ef       	ldi	r30, 0xFF	; 255
     7ee:	ff e3       	ldi	r31, 0x3F	; 63
     7f0:	31 97       	sbiw	r30, 0x01	; 1
     7f2:	f1 f7       	brne	.-4      	; 0x7f0 <__stack+0x391>
     7f4:	00 c0       	rjmp	.+0      	; 0x7f6 <__stack+0x397>
     7f6:	ef ef       	ldi	r30, 0xFF	; 255
     7f8:	ff e3       	ldi	r31, 0x3F	; 63
     7fa:	31 97       	sbiw	r30, 0x01	; 1
     7fc:	f1 f7       	brne	.-4      	; 0x7fa <__stack+0x39b>
     7fe:	00 c0       	rjmp	.+0      	; 0x800 <__stack+0x3a1>
     800:	ef ef       	ldi	r30, 0xFF	; 255
     802:	ff e3       	ldi	r31, 0x3F	; 63
     804:	31 97       	sbiw	r30, 0x01	; 1
     806:	f1 f7       	brne	.-4      	; 0x804 <__stack+0x3a5>
     808:	00 c0       	rjmp	.+0      	; 0x80a <__stack+0x3ab>
     80a:	ef ef       	ldi	r30, 0xFF	; 255
     80c:	ff e3       	ldi	r31, 0x3F	; 63
     80e:	31 97       	sbiw	r30, 0x01	; 1
     810:	f1 f7       	brne	.-4      	; 0x80e <__stack+0x3af>
     812:	00 c0       	rjmp	.+0      	; 0x814 <__stack+0x3b5>
     814:	ef ef       	ldi	r30, 0xFF	; 255
     816:	ff e3       	ldi	r31, 0x3F	; 63
     818:	31 97       	sbiw	r30, 0x01	; 1
     81a:	f1 f7       	brne	.-4      	; 0x818 <__stack+0x3b9>
     81c:	00 c0       	rjmp	.+0      	; 0x81e <__stack+0x3bf>
     81e:	ef ef       	ldi	r30, 0xFF	; 255
     820:	ff e3       	ldi	r31, 0x3F	; 63
     822:	31 97       	sbiw	r30, 0x01	; 1
     824:	f1 f7       	brne	.-4      	; 0x822 <__stack+0x3c3>
     826:	00 c0       	rjmp	.+0      	; 0x828 <__stack+0x3c9>
     828:	ef ef       	ldi	r30, 0xFF	; 255
     82a:	ff e3       	ldi	r31, 0x3F	; 63
     82c:	31 97       	sbiw	r30, 0x01	; 1
     82e:	f1 f7       	brne	.-4      	; 0x82c <__stack+0x3cd>
     830:	00 c0       	rjmp	.+0      	; 0x832 <__stack+0x3d3>
     832:	ef ef       	ldi	r30, 0xFF	; 255
     834:	ff e3       	ldi	r31, 0x3F	; 63
     836:	31 97       	sbiw	r30, 0x01	; 1
     838:	f1 f7       	brne	.-4      	; 0x836 <__stack+0x3d7>
     83a:	00 c0       	rjmp	.+0      	; 0x83c <__stack+0x3dd>
     83c:	ef ef       	ldi	r30, 0xFF	; 255
     83e:	ff e3       	ldi	r31, 0x3F	; 63
     840:	31 97       	sbiw	r30, 0x01	; 1
     842:	f1 f7       	brne	.-4      	; 0x840 <__stack+0x3e1>
     844:	00 c0       	rjmp	.+0      	; 0x846 <__stack+0x3e7>
     846:	ef ef       	ldi	r30, 0xFF	; 255
     848:	ff e3       	ldi	r31, 0x3F	; 63
     84a:	31 97       	sbiw	r30, 0x01	; 1
     84c:	f1 f7       	brne	.-4      	; 0x84a <__stack+0x3eb>
     84e:	00 c0       	rjmp	.+0      	; 0x850 <__stack+0x3f1>
     850:	ef ef       	ldi	r30, 0xFF	; 255
     852:	ff e3       	ldi	r31, 0x3F	; 63
     854:	31 97       	sbiw	r30, 0x01	; 1
     856:	f1 f7       	brne	.-4      	; 0x854 <__stack+0x3f5>
     858:	00 c0       	rjmp	.+0      	; 0x85a <__stack+0x3fb>
     85a:	ef ef       	ldi	r30, 0xFF	; 255
     85c:	ff e3       	ldi	r31, 0x3F	; 63
     85e:	31 97       	sbiw	r30, 0x01	; 1
     860:	f1 f7       	brne	.-4      	; 0x85e <__stack+0x3ff>
     862:	00 c0       	rjmp	.+0      	; 0x864 <__stack+0x405>
     864:	ef ef       	ldi	r30, 0xFF	; 255
     866:	ff e3       	ldi	r31, 0x3F	; 63
     868:	31 97       	sbiw	r30, 0x01	; 1
     86a:	f1 f7       	brne	.-4      	; 0x868 <__stack+0x409>
     86c:	00 c0       	rjmp	.+0      	; 0x86e <__stack+0x40f>
     86e:	ef ef       	ldi	r30, 0xFF	; 255
     870:	ff e3       	ldi	r31, 0x3F	; 63
     872:	31 97       	sbiw	r30, 0x01	; 1
     874:	f1 f7       	brne	.-4      	; 0x872 <__stack+0x413>
     876:	00 c0       	rjmp	.+0      	; 0x878 <__stack+0x419>
     878:	ef ef       	ldi	r30, 0xFF	; 255
     87a:	ff e3       	ldi	r31, 0x3F	; 63
     87c:	31 97       	sbiw	r30, 0x01	; 1
     87e:	f1 f7       	brne	.-4      	; 0x87c <__stack+0x41d>
     880:	00 c0       	rjmp	.+0      	; 0x882 <__stack+0x423>
     882:	ef ef       	ldi	r30, 0xFF	; 255
     884:	ff e3       	ldi	r31, 0x3F	; 63
     886:	31 97       	sbiw	r30, 0x01	; 1
     888:	f1 f7       	brne	.-4      	; 0x886 <__stack+0x427>
     88a:	00 c0       	rjmp	.+0      	; 0x88c <__stack+0x42d>
     88c:	ef ef       	ldi	r30, 0xFF	; 255
     88e:	ff e3       	ldi	r31, 0x3F	; 63
     890:	31 97       	sbiw	r30, 0x01	; 1
     892:	f1 f7       	brne	.-4      	; 0x890 <__stack+0x431>
     894:	00 c0       	rjmp	.+0      	; 0x896 <__stack+0x437>
     896:	ef ef       	ldi	r30, 0xFF	; 255
     898:	ff e3       	ldi	r31, 0x3F	; 63
     89a:	31 97       	sbiw	r30, 0x01	; 1
     89c:	f1 f7       	brne	.-4      	; 0x89a <__stack+0x43b>
     89e:	00 c0       	rjmp	.+0      	; 0x8a0 <__stack+0x441>
     8a0:	ef ef       	ldi	r30, 0xFF	; 255
     8a2:	ff e3       	ldi	r31, 0x3F	; 63
     8a4:	31 97       	sbiw	r30, 0x01	; 1
     8a6:	f1 f7       	brne	.-4      	; 0x8a4 <__stack+0x445>
     8a8:	00 c0       	rjmp	.+0      	; 0x8aa <__stack+0x44b>
     8aa:	ef ef       	ldi	r30, 0xFF	; 255
     8ac:	ff e3       	ldi	r31, 0x3F	; 63
     8ae:	31 97       	sbiw	r30, 0x01	; 1
     8b0:	f1 f7       	brne	.-4      	; 0x8ae <__stack+0x44f>
     8b2:	00 c0       	rjmp	.+0      	; 0x8b4 <__stack+0x455>
     8b4:	ef ef       	ldi	r30, 0xFF	; 255
     8b6:	ff e3       	ldi	r31, 0x3F	; 63
     8b8:	31 97       	sbiw	r30, 0x01	; 1
     8ba:	f1 f7       	brne	.-4      	; 0x8b8 <__stack+0x459>
     8bc:	00 c0       	rjmp	.+0      	; 0x8be <__stack+0x45f>
     8be:	ef ef       	ldi	r30, 0xFF	; 255
     8c0:	ff e3       	ldi	r31, 0x3F	; 63
     8c2:	31 97       	sbiw	r30, 0x01	; 1
     8c4:	f1 f7       	brne	.-4      	; 0x8c2 <__stack+0x463>
     8c6:	00 c0       	rjmp	.+0      	; 0x8c8 <__stack+0x469>
     8c8:	ef ef       	ldi	r30, 0xFF	; 255
     8ca:	ff e3       	ldi	r31, 0x3F	; 63
     8cc:	31 97       	sbiw	r30, 0x01	; 1
     8ce:	f1 f7       	brne	.-4      	; 0x8cc <__stack+0x46d>
     8d0:	00 c0       	rjmp	.+0      	; 0x8d2 <__stack+0x473>
     8d2:	ef ef       	ldi	r30, 0xFF	; 255
     8d4:	ff e3       	ldi	r31, 0x3F	; 63
     8d6:	31 97       	sbiw	r30, 0x01	; 1
     8d8:	f1 f7       	brne	.-4      	; 0x8d6 <__stack+0x477>
     8da:	00 c0       	rjmp	.+0      	; 0x8dc <__stack+0x47d>
     8dc:	ef ef       	ldi	r30, 0xFF	; 255
     8de:	ff e3       	ldi	r31, 0x3F	; 63
     8e0:	31 97       	sbiw	r30, 0x01	; 1
     8e2:	f1 f7       	brne	.-4      	; 0x8e0 <__stack+0x481>
     8e4:	00 c0       	rjmp	.+0      	; 0x8e6 <__stack+0x487>
     8e6:	ef ef       	ldi	r30, 0xFF	; 255
     8e8:	ff e3       	ldi	r31, 0x3F	; 63
     8ea:	31 97       	sbiw	r30, 0x01	; 1
     8ec:	f1 f7       	brne	.-4      	; 0x8ea <__stack+0x48b>
     8ee:	00 c0       	rjmp	.+0      	; 0x8f0 <__stack+0x491>
     8f0:	ef ef       	ldi	r30, 0xFF	; 255
     8f2:	ff e3       	ldi	r31, 0x3F	; 63
     8f4:	31 97       	sbiw	r30, 0x01	; 1
     8f6:	f1 f7       	brne	.-4      	; 0x8f4 <__stack+0x495>
     8f8:	00 c0       	rjmp	.+0      	; 0x8fa <__stack+0x49b>
     8fa:	ef ef       	ldi	r30, 0xFF	; 255
     8fc:	ff e3       	ldi	r31, 0x3F	; 63
     8fe:	31 97       	sbiw	r30, 0x01	; 1
     900:	f1 f7       	brne	.-4      	; 0x8fe <__stack+0x49f>
     902:	00 c0       	rjmp	.+0      	; 0x904 <__stack+0x4a5>
     904:	ef ef       	ldi	r30, 0xFF	; 255
     906:	ff e3       	ldi	r31, 0x3F	; 63
     908:	31 97       	sbiw	r30, 0x01	; 1
     90a:	f1 f7       	brne	.-4      	; 0x908 <__stack+0x4a9>
     90c:	00 c0       	rjmp	.+0      	; 0x90e <__stack+0x4af>
     90e:	ef ef       	ldi	r30, 0xFF	; 255
     910:	ff e3       	ldi	r31, 0x3F	; 63
     912:	31 97       	sbiw	r30, 0x01	; 1
     914:	f1 f7       	brne	.-4      	; 0x912 <__stack+0x4b3>
     916:	00 c0       	rjmp	.+0      	; 0x918 <__stack+0x4b9>
     918:	ef ef       	ldi	r30, 0xFF	; 255
     91a:	ff e3       	ldi	r31, 0x3F	; 63
     91c:	31 97       	sbiw	r30, 0x01	; 1
     91e:	f1 f7       	brne	.-4      	; 0x91c <__stack+0x4bd>
     920:	00 c0       	rjmp	.+0      	; 0x922 <__stack+0x4c3>
     922:	ef ef       	ldi	r30, 0xFF	; 255
     924:	ff e3       	ldi	r31, 0x3F	; 63
     926:	31 97       	sbiw	r30, 0x01	; 1
     928:	f1 f7       	brne	.-4      	; 0x926 <__stack+0x4c7>
     92a:	00 c0       	rjmp	.+0      	; 0x92c <__stack+0x4cd>
     92c:	ef ef       	ldi	r30, 0xFF	; 255
     92e:	ff e3       	ldi	r31, 0x3F	; 63
     930:	31 97       	sbiw	r30, 0x01	; 1
     932:	f1 f7       	brne	.-4      	; 0x930 <__stack+0x4d1>
     934:	00 c0       	rjmp	.+0      	; 0x936 <__stack+0x4d7>
     936:	ef ef       	ldi	r30, 0xFF	; 255
     938:	ff e3       	ldi	r31, 0x3F	; 63
     93a:	31 97       	sbiw	r30, 0x01	; 1
     93c:	f1 f7       	brne	.-4      	; 0x93a <__stack+0x4db>
     93e:	00 c0       	rjmp	.+0      	; 0x940 <__stack+0x4e1>
     940:	ef ef       	ldi	r30, 0xFF	; 255
     942:	ff e3       	ldi	r31, 0x3F	; 63
     944:	31 97       	sbiw	r30, 0x01	; 1
     946:	f1 f7       	brne	.-4      	; 0x944 <__stack+0x4e5>
     948:	00 c0       	rjmp	.+0      	; 0x94a <__stack+0x4eb>
     94a:	ef ef       	ldi	r30, 0xFF	; 255
     94c:	ff e3       	ldi	r31, 0x3F	; 63
     94e:	31 97       	sbiw	r30, 0x01	; 1
     950:	f1 f7       	brne	.-4      	; 0x94e <__stack+0x4ef>
     952:	00 c0       	rjmp	.+0      	; 0x954 <__stack+0x4f5>
     954:	ef ef       	ldi	r30, 0xFF	; 255
     956:	ff e3       	ldi	r31, 0x3F	; 63
     958:	31 97       	sbiw	r30, 0x01	; 1
     95a:	f1 f7       	brne	.-4      	; 0x958 <__stack+0x4f9>
     95c:	00 c0       	rjmp	.+0      	; 0x95e <__stack+0x4ff>
     95e:	ef ef       	ldi	r30, 0xFF	; 255
     960:	ff e3       	ldi	r31, 0x3F	; 63
     962:	31 97       	sbiw	r30, 0x01	; 1
     964:	f1 f7       	brne	.-4      	; 0x962 <__stack+0x503>
     966:	00 c0       	rjmp	.+0      	; 0x968 <__stack+0x509>
     968:	ef ef       	ldi	r30, 0xFF	; 255
     96a:	ff e3       	ldi	r31, 0x3F	; 63
     96c:	31 97       	sbiw	r30, 0x01	; 1
     96e:	f1 f7       	brne	.-4      	; 0x96c <__stack+0x50d>
     970:	00 c0       	rjmp	.+0      	; 0x972 <__stack+0x513>
     972:	ef ef       	ldi	r30, 0xFF	; 255
     974:	ff e3       	ldi	r31, 0x3F	; 63
     976:	31 97       	sbiw	r30, 0x01	; 1
     978:	f1 f7       	brne	.-4      	; 0x976 <__stack+0x517>
     97a:	00 c0       	rjmp	.+0      	; 0x97c <__stack+0x51d>
     97c:	ef ef       	ldi	r30, 0xFF	; 255
     97e:	ff e3       	ldi	r31, 0x3F	; 63
     980:	31 97       	sbiw	r30, 0x01	; 1
     982:	f1 f7       	brne	.-4      	; 0x980 <__stack+0x521>
     984:	00 c0       	rjmp	.+0      	; 0x986 <__stack+0x527>
     986:	ef ef       	ldi	r30, 0xFF	; 255
     988:	ff e3       	ldi	r31, 0x3F	; 63
     98a:	31 97       	sbiw	r30, 0x01	; 1
     98c:	f1 f7       	brne	.-4      	; 0x98a <__stack+0x52b>
     98e:	00 c0       	rjmp	.+0      	; 0x990 <__stack+0x531>
     990:	ef ef       	ldi	r30, 0xFF	; 255
     992:	ff e3       	ldi	r31, 0x3F	; 63
     994:	31 97       	sbiw	r30, 0x01	; 1
     996:	f1 f7       	brne	.-4      	; 0x994 <__stack+0x535>
     998:	00 c0       	rjmp	.+0      	; 0x99a <__stack+0x53b>
     99a:	ef ef       	ldi	r30, 0xFF	; 255
     99c:	ff e3       	ldi	r31, 0x3F	; 63
     99e:	31 97       	sbiw	r30, 0x01	; 1
     9a0:	f1 f7       	brne	.-4      	; 0x99e <__stack+0x53f>
     9a2:	00 c0       	rjmp	.+0      	; 0x9a4 <__stack+0x545>
     9a4:	ef ef       	ldi	r30, 0xFF	; 255
     9a6:	ff e3       	ldi	r31, 0x3F	; 63
     9a8:	31 97       	sbiw	r30, 0x01	; 1
     9aa:	f1 f7       	brne	.-4      	; 0x9a8 <__stack+0x549>
     9ac:	00 c0       	rjmp	.+0      	; 0x9ae <__stack+0x54f>
     9ae:	ef ef       	ldi	r30, 0xFF	; 255
     9b0:	ff e3       	ldi	r31, 0x3F	; 63
     9b2:	31 97       	sbiw	r30, 0x01	; 1
     9b4:	f1 f7       	brne	.-4      	; 0x9b2 <__stack+0x553>
     9b6:	00 c0       	rjmp	.+0      	; 0x9b8 <__stack+0x559>
     9b8:	ef ef       	ldi	r30, 0xFF	; 255
     9ba:	ff e3       	ldi	r31, 0x3F	; 63
     9bc:	31 97       	sbiw	r30, 0x01	; 1
     9be:	f1 f7       	brne	.-4      	; 0x9bc <__stack+0x55d>
     9c0:	00 c0       	rjmp	.+0      	; 0x9c2 <__stack+0x563>
     9c2:	ef ef       	ldi	r30, 0xFF	; 255
     9c4:	ff e3       	ldi	r31, 0x3F	; 63
     9c6:	31 97       	sbiw	r30, 0x01	; 1
     9c8:	f1 f7       	brne	.-4      	; 0x9c6 <__stack+0x567>
     9ca:	00 c0       	rjmp	.+0      	; 0x9cc <__stack+0x56d>
     9cc:	ef ef       	ldi	r30, 0xFF	; 255
     9ce:	ff e3       	ldi	r31, 0x3F	; 63
     9d0:	31 97       	sbiw	r30, 0x01	; 1
     9d2:	f1 f7       	brne	.-4      	; 0x9d0 <__stack+0x571>
     9d4:	00 c0       	rjmp	.+0      	; 0x9d6 <__stack+0x577>
     9d6:	ef ef       	ldi	r30, 0xFF	; 255
     9d8:	ff e3       	ldi	r31, 0x3F	; 63
     9da:	31 97       	sbiw	r30, 0x01	; 1
     9dc:	f1 f7       	brne	.-4      	; 0x9da <__stack+0x57b>
     9de:	00 c0       	rjmp	.+0      	; 0x9e0 <__stack+0x581>
     9e0:	ef ef       	ldi	r30, 0xFF	; 255
     9e2:	ff e3       	ldi	r31, 0x3F	; 63
     9e4:	31 97       	sbiw	r30, 0x01	; 1
     9e6:	f1 f7       	brne	.-4      	; 0x9e4 <__stack+0x585>
     9e8:	00 c0       	rjmp	.+0      	; 0x9ea <__stack+0x58b>
     9ea:	8a bd       	out	0x2a, r24	; 42
     9ec:	88 bd       	out	0x28, r24	; 40
     9ee:	13 bc       	out	0x23, r1	; 35
     9f0:	ef ef       	ldi	r30, 0xFF	; 255
     9f2:	ff e3       	ldi	r31, 0x3F	; 63
     9f4:	31 97       	sbiw	r30, 0x01	; 1
     9f6:	f1 f7       	brne	.-4      	; 0x9f4 <__stack+0x595>
     9f8:	00 c0       	rjmp	.+0      	; 0x9fa <__stack+0x59b>
     9fa:	ef ef       	ldi	r30, 0xFF	; 255
     9fc:	ff e3       	ldi	r31, 0x3F	; 63
     9fe:	31 97       	sbiw	r30, 0x01	; 1
     a00:	f1 f7       	brne	.-4      	; 0x9fe <__stack+0x59f>
     a02:	00 c0       	rjmp	.+0      	; 0xa04 <__stack+0x5a5>
     a04:	ef ef       	ldi	r30, 0xFF	; 255
     a06:	ff e3       	ldi	r31, 0x3F	; 63
     a08:	31 97       	sbiw	r30, 0x01	; 1
     a0a:	f1 f7       	brne	.-4      	; 0xa08 <__stack+0x5a9>
     a0c:	00 c0       	rjmp	.+0      	; 0xa0e <__stack+0x5af>
     a0e:	ef ef       	ldi	r30, 0xFF	; 255
     a10:	ff e3       	ldi	r31, 0x3F	; 63
     a12:	31 97       	sbiw	r30, 0x01	; 1
     a14:	f1 f7       	brne	.-4      	; 0xa12 <__stack+0x5b3>
     a16:	00 c0       	rjmp	.+0      	; 0xa18 <__stack+0x5b9>
     a18:	ef ef       	ldi	r30, 0xFF	; 255
     a1a:	ff e3       	ldi	r31, 0x3F	; 63
     a1c:	31 97       	sbiw	r30, 0x01	; 1
     a1e:	f1 f7       	brne	.-4      	; 0xa1c <__stack+0x5bd>
     a20:	00 c0       	rjmp	.+0      	; 0xa22 <__stack+0x5c3>
     a22:	ef ef       	ldi	r30, 0xFF	; 255
     a24:	ff e3       	ldi	r31, 0x3F	; 63
     a26:	31 97       	sbiw	r30, 0x01	; 1
     a28:	f1 f7       	brne	.-4      	; 0xa26 <__stack+0x5c7>
     a2a:	00 c0       	rjmp	.+0      	; 0xa2c <__stack+0x5cd>
     a2c:	ef ef       	ldi	r30, 0xFF	; 255
     a2e:	ff e3       	ldi	r31, 0x3F	; 63
     a30:	31 97       	sbiw	r30, 0x01	; 1
     a32:	f1 f7       	brne	.-4      	; 0xa30 <__stack+0x5d1>
     a34:	00 c0       	rjmp	.+0      	; 0xa36 <__stack+0x5d7>
     a36:	ef ef       	ldi	r30, 0xFF	; 255
     a38:	ff e3       	ldi	r31, 0x3F	; 63
     a3a:	31 97       	sbiw	r30, 0x01	; 1
     a3c:	f1 f7       	brne	.-4      	; 0xa3a <__stack+0x5db>
     a3e:	00 c0       	rjmp	.+0      	; 0xa40 <__stack+0x5e1>
     a40:	ef ef       	ldi	r30, 0xFF	; 255
     a42:	ff e3       	ldi	r31, 0x3F	; 63
     a44:	31 97       	sbiw	r30, 0x01	; 1
     a46:	f1 f7       	brne	.-4      	; 0xa44 <__stack+0x5e5>
     a48:	00 c0       	rjmp	.+0      	; 0xa4a <__stack+0x5eb>
     a4a:	ef ef       	ldi	r30, 0xFF	; 255
     a4c:	ff e3       	ldi	r31, 0x3F	; 63
     a4e:	31 97       	sbiw	r30, 0x01	; 1
     a50:	f1 f7       	brne	.-4      	; 0xa4e <__stack+0x5ef>
     a52:	00 c0       	rjmp	.+0      	; 0xa54 <__stack+0x5f5>
     a54:	ef ef       	ldi	r30, 0xFF	; 255
     a56:	ff e3       	ldi	r31, 0x3F	; 63
     a58:	31 97       	sbiw	r30, 0x01	; 1
     a5a:	f1 f7       	brne	.-4      	; 0xa58 <__stack+0x5f9>
     a5c:	00 c0       	rjmp	.+0      	; 0xa5e <__stack+0x5ff>
     a5e:	ef ef       	ldi	r30, 0xFF	; 255
     a60:	ff e3       	ldi	r31, 0x3F	; 63
     a62:	31 97       	sbiw	r30, 0x01	; 1
     a64:	f1 f7       	brne	.-4      	; 0xa62 <__stack+0x603>
     a66:	00 c0       	rjmp	.+0      	; 0xa68 <__stack+0x609>
     a68:	ef ef       	ldi	r30, 0xFF	; 255
     a6a:	ff e3       	ldi	r31, 0x3F	; 63
     a6c:	31 97       	sbiw	r30, 0x01	; 1
     a6e:	f1 f7       	brne	.-4      	; 0xa6c <__stack+0x60d>
     a70:	00 c0       	rjmp	.+0      	; 0xa72 <__stack+0x613>
     a72:	ef ef       	ldi	r30, 0xFF	; 255
     a74:	ff e3       	ldi	r31, 0x3F	; 63
     a76:	31 97       	sbiw	r30, 0x01	; 1
     a78:	f1 f7       	brne	.-4      	; 0xa76 <__stack+0x617>
     a7a:	00 c0       	rjmp	.+0      	; 0xa7c <__stack+0x61d>
     a7c:	ef ef       	ldi	r30, 0xFF	; 255
     a7e:	ff e3       	ldi	r31, 0x3F	; 63
     a80:	31 97       	sbiw	r30, 0x01	; 1
     a82:	f1 f7       	brne	.-4      	; 0xa80 <__stack+0x621>
     a84:	00 c0       	rjmp	.+0      	; 0xa86 <__stack+0x627>
     a86:	ef ef       	ldi	r30, 0xFF	; 255
     a88:	ff e3       	ldi	r31, 0x3F	; 63
     a8a:	31 97       	sbiw	r30, 0x01	; 1
     a8c:	f1 f7       	brne	.-4      	; 0xa8a <__stack+0x62b>
     a8e:	00 c0       	rjmp	.+0      	; 0xa90 <__stack+0x631>
     a90:	ef ef       	ldi	r30, 0xFF	; 255
     a92:	ff e3       	ldi	r31, 0x3F	; 63
     a94:	31 97       	sbiw	r30, 0x01	; 1
     a96:	f1 f7       	brne	.-4      	; 0xa94 <__stack+0x635>
     a98:	00 c0       	rjmp	.+0      	; 0xa9a <__stack+0x63b>
     a9a:	ef ef       	ldi	r30, 0xFF	; 255
     a9c:	ff e3       	ldi	r31, 0x3F	; 63
     a9e:	31 97       	sbiw	r30, 0x01	; 1
     aa0:	f1 f7       	brne	.-4      	; 0xa9e <__stack+0x63f>
     aa2:	00 c0       	rjmp	.+0      	; 0xaa4 <__stack+0x645>
     aa4:	ef ef       	ldi	r30, 0xFF	; 255
     aa6:	ff e3       	ldi	r31, 0x3F	; 63
     aa8:	31 97       	sbiw	r30, 0x01	; 1
     aaa:	f1 f7       	brne	.-4      	; 0xaa8 <__stack+0x649>
     aac:	00 c0       	rjmp	.+0      	; 0xaae <__stack+0x64f>
     aae:	ef ef       	ldi	r30, 0xFF	; 255
     ab0:	ff e3       	ldi	r31, 0x3F	; 63
     ab2:	31 97       	sbiw	r30, 0x01	; 1
     ab4:	f1 f7       	brne	.-4      	; 0xab2 <__stack+0x653>
     ab6:	00 c0       	rjmp	.+0      	; 0xab8 <__stack+0x659>
     ab8:	ef ef       	ldi	r30, 0xFF	; 255
     aba:	ff e3       	ldi	r31, 0x3F	; 63
     abc:	31 97       	sbiw	r30, 0x01	; 1
     abe:	f1 f7       	brne	.-4      	; 0xabc <__stack+0x65d>
     ac0:	00 c0       	rjmp	.+0      	; 0xac2 <__stack+0x663>
     ac2:	ef ef       	ldi	r30, 0xFF	; 255
     ac4:	ff e3       	ldi	r31, 0x3F	; 63
     ac6:	31 97       	sbiw	r30, 0x01	; 1
     ac8:	f1 f7       	brne	.-4      	; 0xac6 <__stack+0x667>
     aca:	00 c0       	rjmp	.+0      	; 0xacc <__stack+0x66d>
     acc:	ef ef       	ldi	r30, 0xFF	; 255
     ace:	ff e3       	ldi	r31, 0x3F	; 63
     ad0:	31 97       	sbiw	r30, 0x01	; 1
     ad2:	f1 f7       	brne	.-4      	; 0xad0 <__stack+0x671>
     ad4:	00 c0       	rjmp	.+0      	; 0xad6 <__stack+0x677>
     ad6:	ef ef       	ldi	r30, 0xFF	; 255
     ad8:	ff e3       	ldi	r31, 0x3F	; 63
     ada:	31 97       	sbiw	r30, 0x01	; 1
     adc:	f1 f7       	brne	.-4      	; 0xada <__stack+0x67b>
     ade:	00 c0       	rjmp	.+0      	; 0xae0 <__stack+0x681>
     ae0:	ef ef       	ldi	r30, 0xFF	; 255
     ae2:	ff e3       	ldi	r31, 0x3F	; 63
     ae4:	31 97       	sbiw	r30, 0x01	; 1
     ae6:	f1 f7       	brne	.-4      	; 0xae4 <__stack+0x685>
     ae8:	00 c0       	rjmp	.+0      	; 0xaea <__stack+0x68b>
     aea:	ef ef       	ldi	r30, 0xFF	; 255
     aec:	ff e3       	ldi	r31, 0x3F	; 63
     aee:	31 97       	sbiw	r30, 0x01	; 1
     af0:	f1 f7       	brne	.-4      	; 0xaee <__stack+0x68f>
     af2:	00 c0       	rjmp	.+0      	; 0xaf4 <__stack+0x695>
     af4:	ef ef       	ldi	r30, 0xFF	; 255
     af6:	ff e3       	ldi	r31, 0x3F	; 63
     af8:	31 97       	sbiw	r30, 0x01	; 1
     afa:	f1 f7       	brne	.-4      	; 0xaf8 <__stack+0x699>
     afc:	00 c0       	rjmp	.+0      	; 0xafe <__stack+0x69f>
     afe:	ef ef       	ldi	r30, 0xFF	; 255
     b00:	ff e3       	ldi	r31, 0x3F	; 63
     b02:	31 97       	sbiw	r30, 0x01	; 1
     b04:	f1 f7       	brne	.-4      	; 0xb02 <__stack+0x6a3>
     b06:	00 c0       	rjmp	.+0      	; 0xb08 <__stack+0x6a9>
     b08:	ef ef       	ldi	r30, 0xFF	; 255
     b0a:	ff e3       	ldi	r31, 0x3F	; 63
     b0c:	31 97       	sbiw	r30, 0x01	; 1
     b0e:	f1 f7       	brne	.-4      	; 0xb0c <__stack+0x6ad>
     b10:	00 c0       	rjmp	.+0      	; 0xb12 <__stack+0x6b3>
     b12:	ef ef       	ldi	r30, 0xFF	; 255
     b14:	ff e3       	ldi	r31, 0x3F	; 63
     b16:	31 97       	sbiw	r30, 0x01	; 1
     b18:	f1 f7       	brne	.-4      	; 0xb16 <__stack+0x6b7>
     b1a:	00 c0       	rjmp	.+0      	; 0xb1c <__stack+0x6bd>
     b1c:	ef ef       	ldi	r30, 0xFF	; 255
     b1e:	ff e3       	ldi	r31, 0x3F	; 63
     b20:	31 97       	sbiw	r30, 0x01	; 1
     b22:	f1 f7       	brne	.-4      	; 0xb20 <__stack+0x6c1>
     b24:	00 c0       	rjmp	.+0      	; 0xb26 <__stack+0x6c7>
     b26:	ef ef       	ldi	r30, 0xFF	; 255
     b28:	ff e3       	ldi	r31, 0x3F	; 63
     b2a:	31 97       	sbiw	r30, 0x01	; 1
     b2c:	f1 f7       	brne	.-4      	; 0xb2a <__stack+0x6cb>
     b2e:	00 c0       	rjmp	.+0      	; 0xb30 <__stack+0x6d1>
     b30:	ef ef       	ldi	r30, 0xFF	; 255
     b32:	ff e3       	ldi	r31, 0x3F	; 63
     b34:	31 97       	sbiw	r30, 0x01	; 1
     b36:	f1 f7       	brne	.-4      	; 0xb34 <__stack+0x6d5>
     b38:	00 c0       	rjmp	.+0      	; 0xb3a <__stack+0x6db>
     b3a:	ef ef       	ldi	r30, 0xFF	; 255
     b3c:	ff e3       	ldi	r31, 0x3F	; 63
     b3e:	31 97       	sbiw	r30, 0x01	; 1
     b40:	f1 f7       	brne	.-4      	; 0xb3e <__stack+0x6df>
     b42:	00 c0       	rjmp	.+0      	; 0xb44 <__stack+0x6e5>
     b44:	ef ef       	ldi	r30, 0xFF	; 255
     b46:	ff e3       	ldi	r31, 0x3F	; 63
     b48:	31 97       	sbiw	r30, 0x01	; 1
     b4a:	f1 f7       	brne	.-4      	; 0xb48 <__stack+0x6e9>
     b4c:	00 c0       	rjmp	.+0      	; 0xb4e <__stack+0x6ef>
     b4e:	ef ef       	ldi	r30, 0xFF	; 255
     b50:	ff e3       	ldi	r31, 0x3F	; 63
     b52:	31 97       	sbiw	r30, 0x01	; 1
     b54:	f1 f7       	brne	.-4      	; 0xb52 <__stack+0x6f3>
     b56:	00 c0       	rjmp	.+0      	; 0xb58 <__stack+0x6f9>
     b58:	ef ef       	ldi	r30, 0xFF	; 255
     b5a:	ff e3       	ldi	r31, 0x3F	; 63
     b5c:	31 97       	sbiw	r30, 0x01	; 1
     b5e:	f1 f7       	brne	.-4      	; 0xb5c <__stack+0x6fd>
     b60:	00 c0       	rjmp	.+0      	; 0xb62 <__stack+0x703>
     b62:	ef ef       	ldi	r30, 0xFF	; 255
     b64:	ff e3       	ldi	r31, 0x3F	; 63
     b66:	31 97       	sbiw	r30, 0x01	; 1
     b68:	f1 f7       	brne	.-4      	; 0xb66 <__stack+0x707>
     b6a:	00 c0       	rjmp	.+0      	; 0xb6c <__stack+0x70d>
     b6c:	ef ef       	ldi	r30, 0xFF	; 255
     b6e:	ff e3       	ldi	r31, 0x3F	; 63
     b70:	31 97       	sbiw	r30, 0x01	; 1
     b72:	f1 f7       	brne	.-4      	; 0xb70 <__stack+0x711>
     b74:	00 c0       	rjmp	.+0      	; 0xb76 <__stack+0x717>
     b76:	ef ef       	ldi	r30, 0xFF	; 255
     b78:	ff e3       	ldi	r31, 0x3F	; 63
     b7a:	31 97       	sbiw	r30, 0x01	; 1
     b7c:	f1 f7       	brne	.-4      	; 0xb7a <__stack+0x71b>
     b7e:	00 c0       	rjmp	.+0      	; 0xb80 <__stack+0x721>
     b80:	ef ef       	ldi	r30, 0xFF	; 255
     b82:	ff e3       	ldi	r31, 0x3F	; 63
     b84:	31 97       	sbiw	r30, 0x01	; 1
     b86:	f1 f7       	brne	.-4      	; 0xb84 <__stack+0x725>
     b88:	00 c0       	rjmp	.+0      	; 0xb8a <__stack+0x72b>
     b8a:	ef ef       	ldi	r30, 0xFF	; 255
     b8c:	ff e3       	ldi	r31, 0x3F	; 63
     b8e:	31 97       	sbiw	r30, 0x01	; 1
     b90:	f1 f7       	brne	.-4      	; 0xb8e <__stack+0x72f>
     b92:	00 c0       	rjmp	.+0      	; 0xb94 <__stack+0x735>
     b94:	ef ef       	ldi	r30, 0xFF	; 255
     b96:	ff e3       	ldi	r31, 0x3F	; 63
     b98:	31 97       	sbiw	r30, 0x01	; 1
     b9a:	f1 f7       	brne	.-4      	; 0xb98 <__stack+0x739>
     b9c:	00 c0       	rjmp	.+0      	; 0xb9e <__stack+0x73f>
     b9e:	ef ef       	ldi	r30, 0xFF	; 255
     ba0:	ff e3       	ldi	r31, 0x3F	; 63
     ba2:	31 97       	sbiw	r30, 0x01	; 1
     ba4:	f1 f7       	brne	.-4      	; 0xba2 <__stack+0x743>
     ba6:	00 c0       	rjmp	.+0      	; 0xba8 <__stack+0x749>
     ba8:	ef ef       	ldi	r30, 0xFF	; 255
     baa:	ff e3       	ldi	r31, 0x3F	; 63
     bac:	31 97       	sbiw	r30, 0x01	; 1
     bae:	f1 f7       	brne	.-4      	; 0xbac <__stack+0x74d>
     bb0:	00 c0       	rjmp	.+0      	; 0xbb2 <__stack+0x753>
     bb2:	ef ef       	ldi	r30, 0xFF	; 255
     bb4:	ff e3       	ldi	r31, 0x3F	; 63
     bb6:	31 97       	sbiw	r30, 0x01	; 1
     bb8:	f1 f7       	brne	.-4      	; 0xbb6 <__stack+0x757>
     bba:	00 c0       	rjmp	.+0      	; 0xbbc <__stack+0x75d>
     bbc:	ef ef       	ldi	r30, 0xFF	; 255
     bbe:	ff e3       	ldi	r31, 0x3F	; 63
     bc0:	31 97       	sbiw	r30, 0x01	; 1
     bc2:	f1 f7       	brne	.-4      	; 0xbc0 <__stack+0x761>
     bc4:	00 c0       	rjmp	.+0      	; 0xbc6 <__stack+0x767>
     bc6:	ef ef       	ldi	r30, 0xFF	; 255
     bc8:	ff e3       	ldi	r31, 0x3F	; 63
     bca:	31 97       	sbiw	r30, 0x01	; 1
     bcc:	f1 f7       	brne	.-4      	; 0xbca <__stack+0x76b>
     bce:	00 c0       	rjmp	.+0      	; 0xbd0 <__stack+0x771>
     bd0:	ef ef       	ldi	r30, 0xFF	; 255
     bd2:	ff e3       	ldi	r31, 0x3F	; 63
     bd4:	31 97       	sbiw	r30, 0x01	; 1
     bd6:	f1 f7       	brne	.-4      	; 0xbd4 <__stack+0x775>
     bd8:	00 c0       	rjmp	.+0      	; 0xbda <__stack+0x77b>
     bda:	ef ef       	ldi	r30, 0xFF	; 255
     bdc:	ff e3       	ldi	r31, 0x3F	; 63
     bde:	31 97       	sbiw	r30, 0x01	; 1
     be0:	f1 f7       	brne	.-4      	; 0xbde <__stack+0x77f>
     be2:	00 c0       	rjmp	.+0      	; 0xbe4 <__stack+0x785>
     be4:	ef ef       	ldi	r30, 0xFF	; 255
     be6:	ff e3       	ldi	r31, 0x3F	; 63
     be8:	31 97       	sbiw	r30, 0x01	; 1
     bea:	f1 f7       	brne	.-4      	; 0xbe8 <__stack+0x789>
     bec:	00 c0       	rjmp	.+0      	; 0xbee <__stack+0x78f>
     bee:	ef ef       	ldi	r30, 0xFF	; 255
     bf0:	ff e3       	ldi	r31, 0x3F	; 63
     bf2:	31 97       	sbiw	r30, 0x01	; 1
     bf4:	f1 f7       	brne	.-4      	; 0xbf2 <__stack+0x793>
     bf6:	00 c0       	rjmp	.+0      	; 0xbf8 <__stack+0x799>
     bf8:	ef ef       	ldi	r30, 0xFF	; 255
     bfa:	ff e3       	ldi	r31, 0x3F	; 63
     bfc:	31 97       	sbiw	r30, 0x01	; 1
     bfe:	f1 f7       	brne	.-4      	; 0xbfc <__stack+0x79d>
     c00:	00 c0       	rjmp	.+0      	; 0xc02 <__stack+0x7a3>
     c02:	ef ef       	ldi	r30, 0xFF	; 255
     c04:	ff e3       	ldi	r31, 0x3F	; 63
     c06:	31 97       	sbiw	r30, 0x01	; 1
     c08:	f1 f7       	brne	.-4      	; 0xc06 <__stack+0x7a7>
     c0a:	00 c0       	rjmp	.+0      	; 0xc0c <__stack+0x7ad>
     c0c:	ef ef       	ldi	r30, 0xFF	; 255
     c0e:	ff e3       	ldi	r31, 0x3F	; 63
     c10:	31 97       	sbiw	r30, 0x01	; 1
     c12:	f1 f7       	brne	.-4      	; 0xc10 <__stack+0x7b1>
     c14:	00 c0       	rjmp	.+0      	; 0xc16 <__stack+0x7b7>
     c16:	ef ef       	ldi	r30, 0xFF	; 255
     c18:	ff e3       	ldi	r31, 0x3F	; 63
     c1a:	31 97       	sbiw	r30, 0x01	; 1
     c1c:	f1 f7       	brne	.-4      	; 0xc1a <__stack+0x7bb>
     c1e:	00 c0       	rjmp	.+0      	; 0xc20 <__stack+0x7c1>
     c20:	ef ef       	ldi	r30, 0xFF	; 255
     c22:	ff e3       	ldi	r31, 0x3F	; 63
     c24:	31 97       	sbiw	r30, 0x01	; 1
     c26:	f1 f7       	brne	.-4      	; 0xc24 <__stack+0x7c5>
     c28:	00 c0       	rjmp	.+0      	; 0xc2a <__stack+0x7cb>
     c2a:	ef ef       	ldi	r30, 0xFF	; 255
     c2c:	ff e3       	ldi	r31, 0x3F	; 63
     c2e:	31 97       	sbiw	r30, 0x01	; 1
     c30:	f1 f7       	brne	.-4      	; 0xc2e <__stack+0x7cf>
     c32:	00 c0       	rjmp	.+0      	; 0xc34 <__stack+0x7d5>
     c34:	ef ef       	ldi	r30, 0xFF	; 255
     c36:	ff e3       	ldi	r31, 0x3F	; 63
     c38:	31 97       	sbiw	r30, 0x01	; 1
     c3a:	f1 f7       	brne	.-4      	; 0xc38 <__stack+0x7d9>
     c3c:	00 c0       	rjmp	.+0      	; 0xc3e <__stack+0x7df>
     c3e:	ef ef       	ldi	r30, 0xFF	; 255
     c40:	ff e3       	ldi	r31, 0x3F	; 63
     c42:	31 97       	sbiw	r30, 0x01	; 1
     c44:	f1 f7       	brne	.-4      	; 0xc42 <__stack+0x7e3>
     c46:	00 c0       	rjmp	.+0      	; 0xc48 <__stack+0x7e9>
     c48:	ef ef       	ldi	r30, 0xFF	; 255
     c4a:	ff e3       	ldi	r31, 0x3F	; 63
     c4c:	31 97       	sbiw	r30, 0x01	; 1
     c4e:	f1 f7       	brne	.-4      	; 0xc4c <__stack+0x7ed>
     c50:	00 c0       	rjmp	.+0      	; 0xc52 <__stack+0x7f3>
     c52:	ef ef       	ldi	r30, 0xFF	; 255
     c54:	ff e3       	ldi	r31, 0x3F	; 63
     c56:	31 97       	sbiw	r30, 0x01	; 1
     c58:	f1 f7       	brne	.-4      	; 0xc56 <__stack+0x7f7>
     c5a:	00 c0       	rjmp	.+0      	; 0xc5c <__stack+0x7fd>
     c5c:	ef ef       	ldi	r30, 0xFF	; 255
     c5e:	ff e3       	ldi	r31, 0x3F	; 63
     c60:	31 97       	sbiw	r30, 0x01	; 1
     c62:	f1 f7       	brne	.-4      	; 0xc60 <__stack+0x801>
     c64:	00 c0       	rjmp	.+0      	; 0xc66 <__stack+0x807>
     c66:	ef ef       	ldi	r30, 0xFF	; 255
     c68:	ff e3       	ldi	r31, 0x3F	; 63
     c6a:	31 97       	sbiw	r30, 0x01	; 1
     c6c:	f1 f7       	brne	.-4      	; 0xc6a <__stack+0x80b>
     c6e:	00 c0       	rjmp	.+0      	; 0xc70 <__stack+0x811>
     c70:	ef ef       	ldi	r30, 0xFF	; 255
     c72:	ff e3       	ldi	r31, 0x3F	; 63
     c74:	31 97       	sbiw	r30, 0x01	; 1
     c76:	f1 f7       	brne	.-4      	; 0xc74 <__stack+0x815>
     c78:	00 c0       	rjmp	.+0      	; 0xc7a <__stack+0x81b>
     c7a:	ef ef       	ldi	r30, 0xFF	; 255
     c7c:	ff e3       	ldi	r31, 0x3F	; 63
     c7e:	31 97       	sbiw	r30, 0x01	; 1
     c80:	f1 f7       	brne	.-4      	; 0xc7e <__stack+0x81f>
     c82:	00 c0       	rjmp	.+0      	; 0xc84 <__stack+0x825>
     c84:	ef ef       	ldi	r30, 0xFF	; 255
     c86:	ff e3       	ldi	r31, 0x3F	; 63
     c88:	31 97       	sbiw	r30, 0x01	; 1
     c8a:	f1 f7       	brne	.-4      	; 0xc88 <__stack+0x829>
     c8c:	00 c0       	rjmp	.+0      	; 0xc8e <__stack+0x82f>
     c8e:	ef ef       	ldi	r30, 0xFF	; 255
     c90:	ff e3       	ldi	r31, 0x3F	; 63
     c92:	31 97       	sbiw	r30, 0x01	; 1
     c94:	f1 f7       	brne	.-4      	; 0xc92 <__stack+0x833>
     c96:	00 c0       	rjmp	.+0      	; 0xc98 <__stack+0x839>
     c98:	ef ef       	ldi	r30, 0xFF	; 255
     c9a:	ff e3       	ldi	r31, 0x3F	; 63
     c9c:	31 97       	sbiw	r30, 0x01	; 1
     c9e:	f1 f7       	brne	.-4      	; 0xc9c <__stack+0x83d>
     ca0:	00 c0       	rjmp	.+0      	; 0xca2 <__stack+0x843>
     ca2:	ef ef       	ldi	r30, 0xFF	; 255
     ca4:	ff e3       	ldi	r31, 0x3F	; 63
     ca6:	31 97       	sbiw	r30, 0x01	; 1
     ca8:	f1 f7       	brne	.-4      	; 0xca6 <__stack+0x847>
     caa:	00 c0       	rjmp	.+0      	; 0xcac <__stack+0x84d>
     cac:	ef ef       	ldi	r30, 0xFF	; 255
     cae:	ff e3       	ldi	r31, 0x3F	; 63
     cb0:	31 97       	sbiw	r30, 0x01	; 1
     cb2:	f1 f7       	brne	.-4      	; 0xcb0 <__stack+0x851>
     cb4:	00 c0       	rjmp	.+0      	; 0xcb6 <__stack+0x857>
     cb6:	ef ef       	ldi	r30, 0xFF	; 255
     cb8:	ff e3       	ldi	r31, 0x3F	; 63
     cba:	31 97       	sbiw	r30, 0x01	; 1
     cbc:	f1 f7       	brne	.-4      	; 0xcba <__stack+0x85b>
     cbe:	00 c0       	rjmp	.+0      	; 0xcc0 <__stack+0x861>
     cc0:	ef ef       	ldi	r30, 0xFF	; 255
     cc2:	ff e3       	ldi	r31, 0x3F	; 63
     cc4:	31 97       	sbiw	r30, 0x01	; 1
     cc6:	f1 f7       	brne	.-4      	; 0xcc4 <__stack+0x865>
     cc8:	00 c0       	rjmp	.+0      	; 0xcca <__stack+0x86b>
     cca:	ef ef       	ldi	r30, 0xFF	; 255
     ccc:	ff e3       	ldi	r31, 0x3F	; 63
     cce:	31 97       	sbiw	r30, 0x01	; 1
     cd0:	f1 f7       	brne	.-4      	; 0xcce <__stack+0x86f>
     cd2:	00 c0       	rjmp	.+0      	; 0xcd4 <__stack+0x875>
     cd4:	ef ef       	ldi	r30, 0xFF	; 255
     cd6:	ff e3       	ldi	r31, 0x3F	; 63
     cd8:	31 97       	sbiw	r30, 0x01	; 1
     cda:	f1 f7       	brne	.-4      	; 0xcd8 <__stack+0x879>
     cdc:	00 c0       	rjmp	.+0      	; 0xcde <__stack+0x87f>
     cde:	ef ef       	ldi	r30, 0xFF	; 255
     ce0:	ff e3       	ldi	r31, 0x3F	; 63
     ce2:	31 97       	sbiw	r30, 0x01	; 1
     ce4:	f1 f7       	brne	.-4      	; 0xce2 <__stack+0x883>
     ce6:	00 c0       	rjmp	.+0      	; 0xce8 <__stack+0x889>
     ce8:	ef ef       	ldi	r30, 0xFF	; 255
     cea:	ff e3       	ldi	r31, 0x3F	; 63
     cec:	31 97       	sbiw	r30, 0x01	; 1
     cee:	f1 f7       	brne	.-4      	; 0xcec <__stack+0x88d>
     cf0:	00 c0       	rjmp	.+0      	; 0xcf2 <__stack+0x893>
     cf2:	ef ef       	ldi	r30, 0xFF	; 255
     cf4:	ff e3       	ldi	r31, 0x3F	; 63
     cf6:	31 97       	sbiw	r30, 0x01	; 1
     cf8:	f1 f7       	brne	.-4      	; 0xcf6 <__stack+0x897>
     cfa:	00 c0       	rjmp	.+0      	; 0xcfc <__stack+0x89d>
     cfc:	ef ef       	ldi	r30, 0xFF	; 255
     cfe:	ff e3       	ldi	r31, 0x3F	; 63
     d00:	31 97       	sbiw	r30, 0x01	; 1
     d02:	f1 f7       	brne	.-4      	; 0xd00 <__stack+0x8a1>
     d04:	00 c0       	rjmp	.+0      	; 0xd06 <__stack+0x8a7>
     d06:	ef ef       	ldi	r30, 0xFF	; 255
     d08:	ff e3       	ldi	r31, 0x3F	; 63
     d0a:	31 97       	sbiw	r30, 0x01	; 1
     d0c:	f1 f7       	brne	.-4      	; 0xd0a <__stack+0x8ab>
     d0e:	00 c0       	rjmp	.+0      	; 0xd10 <__stack+0x8b1>
     d10:	8a bd       	out	0x2a, r24	; 42
     d12:	18 bc       	out	0x28, r1	; 40
     d14:	83 bd       	out	0x23, r24	; 35
     d16:	ef ef       	ldi	r30, 0xFF	; 255
     d18:	ff e3       	ldi	r31, 0x3F	; 63
     d1a:	31 97       	sbiw	r30, 0x01	; 1
     d1c:	f1 f7       	brne	.-4      	; 0xd1a <__stack+0x8bb>
     d1e:	00 c0       	rjmp	.+0      	; 0xd20 <__stack+0x8c1>
     d20:	ef ef       	ldi	r30, 0xFF	; 255
     d22:	ff e3       	ldi	r31, 0x3F	; 63
     d24:	31 97       	sbiw	r30, 0x01	; 1
     d26:	f1 f7       	brne	.-4      	; 0xd24 <__stack+0x8c5>
     d28:	00 c0       	rjmp	.+0      	; 0xd2a <__stack+0x8cb>
     d2a:	ef ef       	ldi	r30, 0xFF	; 255
     d2c:	ff e3       	ldi	r31, 0x3F	; 63
     d2e:	31 97       	sbiw	r30, 0x01	; 1
     d30:	f1 f7       	brne	.-4      	; 0xd2e <__stack+0x8cf>
     d32:	00 c0       	rjmp	.+0      	; 0xd34 <__stack+0x8d5>
     d34:	ef ef       	ldi	r30, 0xFF	; 255
     d36:	ff e3       	ldi	r31, 0x3F	; 63
     d38:	31 97       	sbiw	r30, 0x01	; 1
     d3a:	f1 f7       	brne	.-4      	; 0xd38 <__stack+0x8d9>
     d3c:	00 c0       	rjmp	.+0      	; 0xd3e <__stack+0x8df>
     d3e:	ef ef       	ldi	r30, 0xFF	; 255
     d40:	ff e3       	ldi	r31, 0x3F	; 63
     d42:	31 97       	sbiw	r30, 0x01	; 1
     d44:	f1 f7       	brne	.-4      	; 0xd42 <__stack+0x8e3>
     d46:	00 c0       	rjmp	.+0      	; 0xd48 <__stack+0x8e9>
     d48:	ef ef       	ldi	r30, 0xFF	; 255
     d4a:	ff e3       	ldi	r31, 0x3F	; 63
     d4c:	31 97       	sbiw	r30, 0x01	; 1
     d4e:	f1 f7       	brne	.-4      	; 0xd4c <__stack+0x8ed>
     d50:	00 c0       	rjmp	.+0      	; 0xd52 <__stack+0x8f3>
     d52:	ef ef       	ldi	r30, 0xFF	; 255
     d54:	ff e3       	ldi	r31, 0x3F	; 63
     d56:	31 97       	sbiw	r30, 0x01	; 1
     d58:	f1 f7       	brne	.-4      	; 0xd56 <__stack+0x8f7>
     d5a:	00 c0       	rjmp	.+0      	; 0xd5c <__stack+0x8fd>
     d5c:	ef ef       	ldi	r30, 0xFF	; 255
     d5e:	ff e3       	ldi	r31, 0x3F	; 63
     d60:	31 97       	sbiw	r30, 0x01	; 1
     d62:	f1 f7       	brne	.-4      	; 0xd60 <__stack+0x901>
     d64:	00 c0       	rjmp	.+0      	; 0xd66 <__stack+0x907>
     d66:	ef ef       	ldi	r30, 0xFF	; 255
     d68:	ff e3       	ldi	r31, 0x3F	; 63
     d6a:	31 97       	sbiw	r30, 0x01	; 1
     d6c:	f1 f7       	brne	.-4      	; 0xd6a <__stack+0x90b>
     d6e:	00 c0       	rjmp	.+0      	; 0xd70 <__stack+0x911>
     d70:	ef ef       	ldi	r30, 0xFF	; 255
     d72:	ff e3       	ldi	r31, 0x3F	; 63
     d74:	31 97       	sbiw	r30, 0x01	; 1
     d76:	f1 f7       	brne	.-4      	; 0xd74 <__stack+0x915>
     d78:	00 c0       	rjmp	.+0      	; 0xd7a <__stack+0x91b>
     d7a:	ef ef       	ldi	r30, 0xFF	; 255
     d7c:	ff e3       	ldi	r31, 0x3F	; 63
     d7e:	31 97       	sbiw	r30, 0x01	; 1
     d80:	f1 f7       	brne	.-4      	; 0xd7e <__stack+0x91f>
     d82:	00 c0       	rjmp	.+0      	; 0xd84 <__stack+0x925>
     d84:	ef ef       	ldi	r30, 0xFF	; 255
     d86:	ff e3       	ldi	r31, 0x3F	; 63
     d88:	31 97       	sbiw	r30, 0x01	; 1
     d8a:	f1 f7       	brne	.-4      	; 0xd88 <__stack+0x929>
     d8c:	00 c0       	rjmp	.+0      	; 0xd8e <__stack+0x92f>
     d8e:	ef ef       	ldi	r30, 0xFF	; 255
     d90:	ff e3       	ldi	r31, 0x3F	; 63
     d92:	31 97       	sbiw	r30, 0x01	; 1
     d94:	f1 f7       	brne	.-4      	; 0xd92 <__stack+0x933>
     d96:	00 c0       	rjmp	.+0      	; 0xd98 <__stack+0x939>
     d98:	ef ef       	ldi	r30, 0xFF	; 255
     d9a:	ff e3       	ldi	r31, 0x3F	; 63
     d9c:	31 97       	sbiw	r30, 0x01	; 1
     d9e:	f1 f7       	brne	.-4      	; 0xd9c <__stack+0x93d>
     da0:	00 c0       	rjmp	.+0      	; 0xda2 <__stack+0x943>
     da2:	ef ef       	ldi	r30, 0xFF	; 255
     da4:	ff e3       	ldi	r31, 0x3F	; 63
     da6:	31 97       	sbiw	r30, 0x01	; 1
     da8:	f1 f7       	brne	.-4      	; 0xda6 <__stack+0x947>
     daa:	00 c0       	rjmp	.+0      	; 0xdac <__stack+0x94d>
     dac:	ef ef       	ldi	r30, 0xFF	; 255
     dae:	ff e3       	ldi	r31, 0x3F	; 63
     db0:	31 97       	sbiw	r30, 0x01	; 1
     db2:	f1 f7       	brne	.-4      	; 0xdb0 <__stack+0x951>
     db4:	00 c0       	rjmp	.+0      	; 0xdb6 <__stack+0x957>
     db6:	ef ef       	ldi	r30, 0xFF	; 255
     db8:	ff e3       	ldi	r31, 0x3F	; 63
     dba:	31 97       	sbiw	r30, 0x01	; 1
     dbc:	f1 f7       	brne	.-4      	; 0xdba <__stack+0x95b>
     dbe:	00 c0       	rjmp	.+0      	; 0xdc0 <__stack+0x961>
     dc0:	ef ef       	ldi	r30, 0xFF	; 255
     dc2:	ff e3       	ldi	r31, 0x3F	; 63
     dc4:	31 97       	sbiw	r30, 0x01	; 1
     dc6:	f1 f7       	brne	.-4      	; 0xdc4 <__stack+0x965>
     dc8:	00 c0       	rjmp	.+0      	; 0xdca <__stack+0x96b>
     dca:	ef ef       	ldi	r30, 0xFF	; 255
     dcc:	ff e3       	ldi	r31, 0x3F	; 63
     dce:	31 97       	sbiw	r30, 0x01	; 1
     dd0:	f1 f7       	brne	.-4      	; 0xdce <__stack+0x96f>
     dd2:	00 c0       	rjmp	.+0      	; 0xdd4 <__stack+0x975>
     dd4:	ef ef       	ldi	r30, 0xFF	; 255
     dd6:	ff e3       	ldi	r31, 0x3F	; 63
     dd8:	31 97       	sbiw	r30, 0x01	; 1
     dda:	f1 f7       	brne	.-4      	; 0xdd8 <__stack+0x979>
     ddc:	00 c0       	rjmp	.+0      	; 0xdde <__stack+0x97f>
     dde:	ef ef       	ldi	r30, 0xFF	; 255
     de0:	ff e3       	ldi	r31, 0x3F	; 63
     de2:	31 97       	sbiw	r30, 0x01	; 1
     de4:	f1 f7       	brne	.-4      	; 0xde2 <__stack+0x983>
     de6:	00 c0       	rjmp	.+0      	; 0xde8 <__stack+0x989>
     de8:	ef ef       	ldi	r30, 0xFF	; 255
     dea:	ff e3       	ldi	r31, 0x3F	; 63
     dec:	31 97       	sbiw	r30, 0x01	; 1
     dee:	f1 f7       	brne	.-4      	; 0xdec <__stack+0x98d>
     df0:	00 c0       	rjmp	.+0      	; 0xdf2 <__stack+0x993>
     df2:	ef ef       	ldi	r30, 0xFF	; 255
     df4:	ff e3       	ldi	r31, 0x3F	; 63
     df6:	31 97       	sbiw	r30, 0x01	; 1
     df8:	f1 f7       	brne	.-4      	; 0xdf6 <__stack+0x997>
     dfa:	00 c0       	rjmp	.+0      	; 0xdfc <__stack+0x99d>
     dfc:	ef ef       	ldi	r30, 0xFF	; 255
     dfe:	ff e3       	ldi	r31, 0x3F	; 63
     e00:	31 97       	sbiw	r30, 0x01	; 1
     e02:	f1 f7       	brne	.-4      	; 0xe00 <__stack+0x9a1>
     e04:	00 c0       	rjmp	.+0      	; 0xe06 <__stack+0x9a7>
     e06:	ef ef       	ldi	r30, 0xFF	; 255
     e08:	ff e3       	ldi	r31, 0x3F	; 63
     e0a:	31 97       	sbiw	r30, 0x01	; 1
     e0c:	f1 f7       	brne	.-4      	; 0xe0a <__stack+0x9ab>
     e0e:	00 c0       	rjmp	.+0      	; 0xe10 <__stack+0x9b1>
     e10:	ef ef       	ldi	r30, 0xFF	; 255
     e12:	ff e3       	ldi	r31, 0x3F	; 63
     e14:	31 97       	sbiw	r30, 0x01	; 1
     e16:	f1 f7       	brne	.-4      	; 0xe14 <__stack+0x9b5>
     e18:	00 c0       	rjmp	.+0      	; 0xe1a <__stack+0x9bb>
     e1a:	ef ef       	ldi	r30, 0xFF	; 255
     e1c:	ff e3       	ldi	r31, 0x3F	; 63
     e1e:	31 97       	sbiw	r30, 0x01	; 1
     e20:	f1 f7       	brne	.-4      	; 0xe1e <__stack+0x9bf>
     e22:	00 c0       	rjmp	.+0      	; 0xe24 <__stack+0x9c5>
     e24:	ef ef       	ldi	r30, 0xFF	; 255
     e26:	ff e3       	ldi	r31, 0x3F	; 63
     e28:	31 97       	sbiw	r30, 0x01	; 1
     e2a:	f1 f7       	brne	.-4      	; 0xe28 <__stack+0x9c9>
     e2c:	00 c0       	rjmp	.+0      	; 0xe2e <__stack+0x9cf>
     e2e:	ef ef       	ldi	r30, 0xFF	; 255
     e30:	ff e3       	ldi	r31, 0x3F	; 63
     e32:	31 97       	sbiw	r30, 0x01	; 1
     e34:	f1 f7       	brne	.-4      	; 0xe32 <__stack+0x9d3>
     e36:	00 c0       	rjmp	.+0      	; 0xe38 <__stack+0x9d9>
     e38:	ef ef       	ldi	r30, 0xFF	; 255
     e3a:	ff e3       	ldi	r31, 0x3F	; 63
     e3c:	31 97       	sbiw	r30, 0x01	; 1
     e3e:	f1 f7       	brne	.-4      	; 0xe3c <__stack+0x9dd>
     e40:	00 c0       	rjmp	.+0      	; 0xe42 <__stack+0x9e3>
     e42:	ef ef       	ldi	r30, 0xFF	; 255
     e44:	ff e3       	ldi	r31, 0x3F	; 63
     e46:	31 97       	sbiw	r30, 0x01	; 1
     e48:	f1 f7       	brne	.-4      	; 0xe46 <__stack+0x9e7>
     e4a:	00 c0       	rjmp	.+0      	; 0xe4c <__stack+0x9ed>
     e4c:	ef ef       	ldi	r30, 0xFF	; 255
     e4e:	ff e3       	ldi	r31, 0x3F	; 63
     e50:	31 97       	sbiw	r30, 0x01	; 1
     e52:	f1 f7       	brne	.-4      	; 0xe50 <__stack+0x9f1>
     e54:	00 c0       	rjmp	.+0      	; 0xe56 <__stack+0x9f7>
     e56:	ef ef       	ldi	r30, 0xFF	; 255
     e58:	ff e3       	ldi	r31, 0x3F	; 63
     e5a:	31 97       	sbiw	r30, 0x01	; 1
     e5c:	f1 f7       	brne	.-4      	; 0xe5a <__stack+0x9fb>
     e5e:	00 c0       	rjmp	.+0      	; 0xe60 <__stack+0xa01>
     e60:	ef ef       	ldi	r30, 0xFF	; 255
     e62:	ff e3       	ldi	r31, 0x3F	; 63
     e64:	31 97       	sbiw	r30, 0x01	; 1
     e66:	f1 f7       	brne	.-4      	; 0xe64 <__stack+0xa05>
     e68:	00 c0       	rjmp	.+0      	; 0xe6a <__stack+0xa0b>
     e6a:	ef ef       	ldi	r30, 0xFF	; 255
     e6c:	ff e3       	ldi	r31, 0x3F	; 63
     e6e:	31 97       	sbiw	r30, 0x01	; 1
     e70:	f1 f7       	brne	.-4      	; 0xe6e <__stack+0xa0f>
     e72:	00 c0       	rjmp	.+0      	; 0xe74 <__stack+0xa15>
     e74:	ef ef       	ldi	r30, 0xFF	; 255
     e76:	ff e3       	ldi	r31, 0x3F	; 63
     e78:	31 97       	sbiw	r30, 0x01	; 1
     e7a:	f1 f7       	brne	.-4      	; 0xe78 <__stack+0xa19>
     e7c:	00 c0       	rjmp	.+0      	; 0xe7e <__stack+0xa1f>
     e7e:	ef ef       	ldi	r30, 0xFF	; 255
     e80:	ff e3       	ldi	r31, 0x3F	; 63
     e82:	31 97       	sbiw	r30, 0x01	; 1
     e84:	f1 f7       	brne	.-4      	; 0xe82 <__stack+0xa23>
     e86:	00 c0       	rjmp	.+0      	; 0xe88 <__stack+0xa29>
     e88:	ef ef       	ldi	r30, 0xFF	; 255
     e8a:	ff e3       	ldi	r31, 0x3F	; 63
     e8c:	31 97       	sbiw	r30, 0x01	; 1
     e8e:	f1 f7       	brne	.-4      	; 0xe8c <__stack+0xa2d>
     e90:	00 c0       	rjmp	.+0      	; 0xe92 <__stack+0xa33>
     e92:	ef ef       	ldi	r30, 0xFF	; 255
     e94:	ff e3       	ldi	r31, 0x3F	; 63
     e96:	31 97       	sbiw	r30, 0x01	; 1
     e98:	f1 f7       	brne	.-4      	; 0xe96 <__stack+0xa37>
     e9a:	00 c0       	rjmp	.+0      	; 0xe9c <__stack+0xa3d>
     e9c:	ef ef       	ldi	r30, 0xFF	; 255
     e9e:	ff e3       	ldi	r31, 0x3F	; 63
     ea0:	31 97       	sbiw	r30, 0x01	; 1
     ea2:	f1 f7       	brne	.-4      	; 0xea0 <__stack+0xa41>
     ea4:	00 c0       	rjmp	.+0      	; 0xea6 <__stack+0xa47>
     ea6:	ef ef       	ldi	r30, 0xFF	; 255
     ea8:	ff e3       	ldi	r31, 0x3F	; 63
     eaa:	31 97       	sbiw	r30, 0x01	; 1
     eac:	f1 f7       	brne	.-4      	; 0xeaa <__stack+0xa4b>
     eae:	00 c0       	rjmp	.+0      	; 0xeb0 <__stack+0xa51>
     eb0:	ef ef       	ldi	r30, 0xFF	; 255
     eb2:	ff e3       	ldi	r31, 0x3F	; 63
     eb4:	31 97       	sbiw	r30, 0x01	; 1
     eb6:	f1 f7       	brne	.-4      	; 0xeb4 <__stack+0xa55>
     eb8:	00 c0       	rjmp	.+0      	; 0xeba <__stack+0xa5b>
     eba:	ef ef       	ldi	r30, 0xFF	; 255
     ebc:	ff e3       	ldi	r31, 0x3F	; 63
     ebe:	31 97       	sbiw	r30, 0x01	; 1
     ec0:	f1 f7       	brne	.-4      	; 0xebe <__stack+0xa5f>
     ec2:	00 c0       	rjmp	.+0      	; 0xec4 <__stack+0xa65>
     ec4:	ef ef       	ldi	r30, 0xFF	; 255
     ec6:	ff e3       	ldi	r31, 0x3F	; 63
     ec8:	31 97       	sbiw	r30, 0x01	; 1
     eca:	f1 f7       	brne	.-4      	; 0xec8 <__stack+0xa69>
     ecc:	00 c0       	rjmp	.+0      	; 0xece <__stack+0xa6f>
     ece:	ef ef       	ldi	r30, 0xFF	; 255
     ed0:	ff e3       	ldi	r31, 0x3F	; 63
     ed2:	31 97       	sbiw	r30, 0x01	; 1
     ed4:	f1 f7       	brne	.-4      	; 0xed2 <__stack+0xa73>
     ed6:	00 c0       	rjmp	.+0      	; 0xed8 <__stack+0xa79>
     ed8:	ef ef       	ldi	r30, 0xFF	; 255
     eda:	ff e3       	ldi	r31, 0x3F	; 63
     edc:	31 97       	sbiw	r30, 0x01	; 1
     ede:	f1 f7       	brne	.-4      	; 0xedc <__stack+0xa7d>
     ee0:	00 c0       	rjmp	.+0      	; 0xee2 <__stack+0xa83>
     ee2:	ef ef       	ldi	r30, 0xFF	; 255
     ee4:	ff e3       	ldi	r31, 0x3F	; 63
     ee6:	31 97       	sbiw	r30, 0x01	; 1
     ee8:	f1 f7       	brne	.-4      	; 0xee6 <__stack+0xa87>
     eea:	00 c0       	rjmp	.+0      	; 0xeec <__stack+0xa8d>
     eec:	ef ef       	ldi	r30, 0xFF	; 255
     eee:	ff e3       	ldi	r31, 0x3F	; 63
     ef0:	31 97       	sbiw	r30, 0x01	; 1
     ef2:	f1 f7       	brne	.-4      	; 0xef0 <__stack+0xa91>
     ef4:	00 c0       	rjmp	.+0      	; 0xef6 <__stack+0xa97>
     ef6:	ef ef       	ldi	r30, 0xFF	; 255
     ef8:	ff e3       	ldi	r31, 0x3F	; 63
     efa:	31 97       	sbiw	r30, 0x01	; 1
     efc:	f1 f7       	brne	.-4      	; 0xefa <__stack+0xa9b>
     efe:	00 c0       	rjmp	.+0      	; 0xf00 <__stack+0xaa1>
     f00:	ef ef       	ldi	r30, 0xFF	; 255
     f02:	ff e3       	ldi	r31, 0x3F	; 63
     f04:	31 97       	sbiw	r30, 0x01	; 1
     f06:	f1 f7       	brne	.-4      	; 0xf04 <__stack+0xaa5>
     f08:	00 c0       	rjmp	.+0      	; 0xf0a <__stack+0xaab>
     f0a:	ef ef       	ldi	r30, 0xFF	; 255
     f0c:	ff e3       	ldi	r31, 0x3F	; 63
     f0e:	31 97       	sbiw	r30, 0x01	; 1
     f10:	f1 f7       	brne	.-4      	; 0xf0e <__stack+0xaaf>
     f12:	00 c0       	rjmp	.+0      	; 0xf14 <__stack+0xab5>
     f14:	ef ef       	ldi	r30, 0xFF	; 255
     f16:	ff e3       	ldi	r31, 0x3F	; 63
     f18:	31 97       	sbiw	r30, 0x01	; 1
     f1a:	f1 f7       	brne	.-4      	; 0xf18 <__stack+0xab9>
     f1c:	00 c0       	rjmp	.+0      	; 0xf1e <__stack+0xabf>
     f1e:	ef ef       	ldi	r30, 0xFF	; 255
     f20:	ff e3       	ldi	r31, 0x3F	; 63
     f22:	31 97       	sbiw	r30, 0x01	; 1
     f24:	f1 f7       	brne	.-4      	; 0xf22 <__stack+0xac3>
     f26:	00 c0       	rjmp	.+0      	; 0xf28 <__stack+0xac9>
     f28:	ef ef       	ldi	r30, 0xFF	; 255
     f2a:	ff e3       	ldi	r31, 0x3F	; 63
     f2c:	31 97       	sbiw	r30, 0x01	; 1
     f2e:	f1 f7       	brne	.-4      	; 0xf2c <__stack+0xacd>
     f30:	00 c0       	rjmp	.+0      	; 0xf32 <__stack+0xad3>
     f32:	ef ef       	ldi	r30, 0xFF	; 255
     f34:	ff e3       	ldi	r31, 0x3F	; 63
     f36:	31 97       	sbiw	r30, 0x01	; 1
     f38:	f1 f7       	brne	.-4      	; 0xf36 <__stack+0xad7>
     f3a:	00 c0       	rjmp	.+0      	; 0xf3c <__stack+0xadd>
     f3c:	ef ef       	ldi	r30, 0xFF	; 255
     f3e:	ff e3       	ldi	r31, 0x3F	; 63
     f40:	31 97       	sbiw	r30, 0x01	; 1
     f42:	f1 f7       	brne	.-4      	; 0xf40 <__stack+0xae1>
     f44:	00 c0       	rjmp	.+0      	; 0xf46 <__stack+0xae7>
     f46:	ef ef       	ldi	r30, 0xFF	; 255
     f48:	ff e3       	ldi	r31, 0x3F	; 63
     f4a:	31 97       	sbiw	r30, 0x01	; 1
     f4c:	f1 f7       	brne	.-4      	; 0xf4a <__stack+0xaeb>
     f4e:	00 c0       	rjmp	.+0      	; 0xf50 <__stack+0xaf1>
     f50:	ef ef       	ldi	r30, 0xFF	; 255
     f52:	ff e3       	ldi	r31, 0x3F	; 63
     f54:	31 97       	sbiw	r30, 0x01	; 1
     f56:	f1 f7       	brne	.-4      	; 0xf54 <__stack+0xaf5>
     f58:	00 c0       	rjmp	.+0      	; 0xf5a <__stack+0xafb>
     f5a:	ef ef       	ldi	r30, 0xFF	; 255
     f5c:	ff e3       	ldi	r31, 0x3F	; 63
     f5e:	31 97       	sbiw	r30, 0x01	; 1
     f60:	f1 f7       	brne	.-4      	; 0xf5e <__stack+0xaff>
     f62:	00 c0       	rjmp	.+0      	; 0xf64 <__stack+0xb05>
     f64:	ef ef       	ldi	r30, 0xFF	; 255
     f66:	ff e3       	ldi	r31, 0x3F	; 63
     f68:	31 97       	sbiw	r30, 0x01	; 1
     f6a:	f1 f7       	brne	.-4      	; 0xf68 <__stack+0xb09>
     f6c:	00 c0       	rjmp	.+0      	; 0xf6e <__stack+0xb0f>
     f6e:	ef ef       	ldi	r30, 0xFF	; 255
     f70:	ff e3       	ldi	r31, 0x3F	; 63
     f72:	31 97       	sbiw	r30, 0x01	; 1
     f74:	f1 f7       	brne	.-4      	; 0xf72 <__stack+0xb13>
     f76:	00 c0       	rjmp	.+0      	; 0xf78 <__stack+0xb19>
     f78:	ef ef       	ldi	r30, 0xFF	; 255
     f7a:	ff e3       	ldi	r31, 0x3F	; 63
     f7c:	31 97       	sbiw	r30, 0x01	; 1
     f7e:	f1 f7       	brne	.-4      	; 0xf7c <__stack+0xb1d>
     f80:	00 c0       	rjmp	.+0      	; 0xf82 <__stack+0xb23>
     f82:	ef ef       	ldi	r30, 0xFF	; 255
     f84:	ff e3       	ldi	r31, 0x3F	; 63
     f86:	31 97       	sbiw	r30, 0x01	; 1
     f88:	f1 f7       	brne	.-4      	; 0xf86 <__stack+0xb27>
     f8a:	00 c0       	rjmp	.+0      	; 0xf8c <__stack+0xb2d>
     f8c:	ef ef       	ldi	r30, 0xFF	; 255
     f8e:	ff e3       	ldi	r31, 0x3F	; 63
     f90:	31 97       	sbiw	r30, 0x01	; 1
     f92:	f1 f7       	brne	.-4      	; 0xf90 <__stack+0xb31>
     f94:	00 c0       	rjmp	.+0      	; 0xf96 <__stack+0xb37>
     f96:	ef ef       	ldi	r30, 0xFF	; 255
     f98:	ff e3       	ldi	r31, 0x3F	; 63
     f9a:	31 97       	sbiw	r30, 0x01	; 1
     f9c:	f1 f7       	brne	.-4      	; 0xf9a <__stack+0xb3b>
     f9e:	00 c0       	rjmp	.+0      	; 0xfa0 <__stack+0xb41>
     fa0:	ef ef       	ldi	r30, 0xFF	; 255
     fa2:	ff e3       	ldi	r31, 0x3F	; 63
     fa4:	31 97       	sbiw	r30, 0x01	; 1
     fa6:	f1 f7       	brne	.-4      	; 0xfa4 <__stack+0xb45>
     fa8:	00 c0       	rjmp	.+0      	; 0xfaa <__stack+0xb4b>
     faa:	ef ef       	ldi	r30, 0xFF	; 255
     fac:	ff e3       	ldi	r31, 0x3F	; 63
     fae:	31 97       	sbiw	r30, 0x01	; 1
     fb0:	f1 f7       	brne	.-4      	; 0xfae <__stack+0xb4f>
     fb2:	00 c0       	rjmp	.+0      	; 0xfb4 <__stack+0xb55>
     fb4:	ef ef       	ldi	r30, 0xFF	; 255
     fb6:	ff e3       	ldi	r31, 0x3F	; 63
     fb8:	31 97       	sbiw	r30, 0x01	; 1
     fba:	f1 f7       	brne	.-4      	; 0xfb8 <__stack+0xb59>
     fbc:	00 c0       	rjmp	.+0      	; 0xfbe <__stack+0xb5f>
     fbe:	ef ef       	ldi	r30, 0xFF	; 255
     fc0:	ff e3       	ldi	r31, 0x3F	; 63
     fc2:	31 97       	sbiw	r30, 0x01	; 1
     fc4:	f1 f7       	brne	.-4      	; 0xfc2 <__stack+0xb63>
     fc6:	00 c0       	rjmp	.+0      	; 0xfc8 <__stack+0xb69>
     fc8:	ef ef       	ldi	r30, 0xFF	; 255
     fca:	ff e3       	ldi	r31, 0x3F	; 63
     fcc:	31 97       	sbiw	r30, 0x01	; 1
     fce:	f1 f7       	brne	.-4      	; 0xfcc <__stack+0xb6d>
     fd0:	00 c0       	rjmp	.+0      	; 0xfd2 <__stack+0xb73>
     fd2:	ef ef       	ldi	r30, 0xFF	; 255
     fd4:	ff e3       	ldi	r31, 0x3F	; 63
     fd6:	31 97       	sbiw	r30, 0x01	; 1
     fd8:	f1 f7       	brne	.-4      	; 0xfd6 <__stack+0xb77>
     fda:	00 c0       	rjmp	.+0      	; 0xfdc <__stack+0xb7d>
     fdc:	ef ef       	ldi	r30, 0xFF	; 255
     fde:	ff e3       	ldi	r31, 0x3F	; 63
     fe0:	31 97       	sbiw	r30, 0x01	; 1
     fe2:	f1 f7       	brne	.-4      	; 0xfe0 <__stack+0xb81>
     fe4:	00 c0       	rjmp	.+0      	; 0xfe6 <__stack+0xb87>
     fe6:	ef ef       	ldi	r30, 0xFF	; 255
     fe8:	ff e3       	ldi	r31, 0x3F	; 63
     fea:	31 97       	sbiw	r30, 0x01	; 1
     fec:	f1 f7       	brne	.-4      	; 0xfea <__stack+0xb8b>
     fee:	00 c0       	rjmp	.+0      	; 0xff0 <__stack+0xb91>
     ff0:	ef ef       	ldi	r30, 0xFF	; 255
     ff2:	ff e3       	ldi	r31, 0x3F	; 63
     ff4:	31 97       	sbiw	r30, 0x01	; 1
     ff6:	f1 f7       	brne	.-4      	; 0xff4 <__stack+0xb95>
     ff8:	00 c0       	rjmp	.+0      	; 0xffa <__stack+0xb9b>
     ffa:	ef ef       	ldi	r30, 0xFF	; 255
     ffc:	ff e3       	ldi	r31, 0x3F	; 63
     ffe:	31 97       	sbiw	r30, 0x01	; 1
    1000:	f1 f7       	brne	.-4      	; 0xffe <__stack+0xb9f>
    1002:	00 c0       	rjmp	.+0      	; 0x1004 <__stack+0xba5>
    1004:	ef ef       	ldi	r30, 0xFF	; 255
    1006:	ff e3       	ldi	r31, 0x3F	; 63
    1008:	31 97       	sbiw	r30, 0x01	; 1
    100a:	f1 f7       	brne	.-4      	; 0x1008 <__stack+0xba9>
    100c:	00 c0       	rjmp	.+0      	; 0x100e <__stack+0xbaf>
    100e:	ef ef       	ldi	r30, 0xFF	; 255
    1010:	ff e3       	ldi	r31, 0x3F	; 63
    1012:	31 97       	sbiw	r30, 0x01	; 1
    1014:	f1 f7       	brne	.-4      	; 0x1012 <__stack+0xbb3>
    1016:	00 c0       	rjmp	.+0      	; 0x1018 <__stack+0xbb9>
    1018:	ef ef       	ldi	r30, 0xFF	; 255
    101a:	ff e3       	ldi	r31, 0x3F	; 63
    101c:	31 97       	sbiw	r30, 0x01	; 1
    101e:	f1 f7       	brne	.-4      	; 0x101c <__stack+0xbbd>
    1020:	00 c0       	rjmp	.+0      	; 0x1022 <__stack+0xbc3>
    1022:	ef ef       	ldi	r30, 0xFF	; 255
    1024:	ff e3       	ldi	r31, 0x3F	; 63
    1026:	31 97       	sbiw	r30, 0x01	; 1
    1028:	f1 f7       	brne	.-4      	; 0x1026 <__stack+0xbc7>
    102a:	00 c0       	rjmp	.+0      	; 0x102c <__stack+0xbcd>
    102c:	ef ef       	ldi	r30, 0xFF	; 255
    102e:	ff e3       	ldi	r31, 0x3F	; 63
    1030:	31 97       	sbiw	r30, 0x01	; 1
    1032:	f1 f7       	brne	.-4      	; 0x1030 <__stack+0xbd1>
    1034:	00 c0       	rjmp	.+0      	; 0x1036 <__stack+0xbd7>
    1036:	1a bc       	out	0x2a, r1	; 42
    1038:	88 bd       	out	0x28, r24	; 40
    103a:	83 bd       	out	0x23, r24	; 35
    103c:	ef ef       	ldi	r30, 0xFF	; 255
    103e:	ff e3       	ldi	r31, 0x3F	; 63
    1040:	31 97       	sbiw	r30, 0x01	; 1
    1042:	f1 f7       	brne	.-4      	; 0x1040 <__stack+0xbe1>
    1044:	00 c0       	rjmp	.+0      	; 0x1046 <__stack+0xbe7>
    1046:	ef ef       	ldi	r30, 0xFF	; 255
    1048:	ff e3       	ldi	r31, 0x3F	; 63
    104a:	31 97       	sbiw	r30, 0x01	; 1
    104c:	f1 f7       	brne	.-4      	; 0x104a <__stack+0xbeb>
    104e:	00 c0       	rjmp	.+0      	; 0x1050 <__stack+0xbf1>
    1050:	ef ef       	ldi	r30, 0xFF	; 255
    1052:	ff e3       	ldi	r31, 0x3F	; 63
    1054:	31 97       	sbiw	r30, 0x01	; 1
    1056:	f1 f7       	brne	.-4      	; 0x1054 <__stack+0xbf5>
    1058:	00 c0       	rjmp	.+0      	; 0x105a <__stack+0xbfb>
    105a:	ef ef       	ldi	r30, 0xFF	; 255
    105c:	ff e3       	ldi	r31, 0x3F	; 63
    105e:	31 97       	sbiw	r30, 0x01	; 1
    1060:	f1 f7       	brne	.-4      	; 0x105e <__stack+0xbff>
    1062:	00 c0       	rjmp	.+0      	; 0x1064 <__stack+0xc05>
    1064:	ef ef       	ldi	r30, 0xFF	; 255
    1066:	ff e3       	ldi	r31, 0x3F	; 63
    1068:	31 97       	sbiw	r30, 0x01	; 1
    106a:	f1 f7       	brne	.-4      	; 0x1068 <__stack+0xc09>
    106c:	00 c0       	rjmp	.+0      	; 0x106e <__stack+0xc0f>
    106e:	ef ef       	ldi	r30, 0xFF	; 255
    1070:	ff e3       	ldi	r31, 0x3F	; 63
    1072:	31 97       	sbiw	r30, 0x01	; 1
    1074:	f1 f7       	brne	.-4      	; 0x1072 <__stack+0xc13>
    1076:	00 c0       	rjmp	.+0      	; 0x1078 <__stack+0xc19>
    1078:	ef ef       	ldi	r30, 0xFF	; 255
    107a:	ff e3       	ldi	r31, 0x3F	; 63
    107c:	31 97       	sbiw	r30, 0x01	; 1
    107e:	f1 f7       	brne	.-4      	; 0x107c <__stack+0xc1d>
    1080:	00 c0       	rjmp	.+0      	; 0x1082 <__stack+0xc23>
    1082:	ef ef       	ldi	r30, 0xFF	; 255
    1084:	ff e3       	ldi	r31, 0x3F	; 63
    1086:	31 97       	sbiw	r30, 0x01	; 1
    1088:	f1 f7       	brne	.-4      	; 0x1086 <__stack+0xc27>
    108a:	00 c0       	rjmp	.+0      	; 0x108c <__stack+0xc2d>
    108c:	ef ef       	ldi	r30, 0xFF	; 255
    108e:	ff e3       	ldi	r31, 0x3F	; 63
    1090:	31 97       	sbiw	r30, 0x01	; 1
    1092:	f1 f7       	brne	.-4      	; 0x1090 <__stack+0xc31>
    1094:	00 c0       	rjmp	.+0      	; 0x1096 <__stack+0xc37>
    1096:	ef ef       	ldi	r30, 0xFF	; 255
    1098:	ff e3       	ldi	r31, 0x3F	; 63
    109a:	31 97       	sbiw	r30, 0x01	; 1
    109c:	f1 f7       	brne	.-4      	; 0x109a <__stack+0xc3b>
    109e:	00 c0       	rjmp	.+0      	; 0x10a0 <__stack+0xc41>
    10a0:	ef ef       	ldi	r30, 0xFF	; 255
    10a2:	ff e3       	ldi	r31, 0x3F	; 63
    10a4:	31 97       	sbiw	r30, 0x01	; 1
    10a6:	f1 f7       	brne	.-4      	; 0x10a4 <__stack+0xc45>
    10a8:	00 c0       	rjmp	.+0      	; 0x10aa <__stack+0xc4b>
    10aa:	ef ef       	ldi	r30, 0xFF	; 255
    10ac:	ff e3       	ldi	r31, 0x3F	; 63
    10ae:	31 97       	sbiw	r30, 0x01	; 1
    10b0:	f1 f7       	brne	.-4      	; 0x10ae <__stack+0xc4f>
    10b2:	00 c0       	rjmp	.+0      	; 0x10b4 <__stack+0xc55>
    10b4:	ef ef       	ldi	r30, 0xFF	; 255
    10b6:	ff e3       	ldi	r31, 0x3F	; 63
    10b8:	31 97       	sbiw	r30, 0x01	; 1
    10ba:	f1 f7       	brne	.-4      	; 0x10b8 <__stack+0xc59>
    10bc:	00 c0       	rjmp	.+0      	; 0x10be <__stack+0xc5f>
    10be:	ef ef       	ldi	r30, 0xFF	; 255
    10c0:	ff e3       	ldi	r31, 0x3F	; 63
    10c2:	31 97       	sbiw	r30, 0x01	; 1
    10c4:	f1 f7       	brne	.-4      	; 0x10c2 <__stack+0xc63>
    10c6:	00 c0       	rjmp	.+0      	; 0x10c8 <__stack+0xc69>
    10c8:	ef ef       	ldi	r30, 0xFF	; 255
    10ca:	ff e3       	ldi	r31, 0x3F	; 63
    10cc:	31 97       	sbiw	r30, 0x01	; 1
    10ce:	f1 f7       	brne	.-4      	; 0x10cc <__stack+0xc6d>
    10d0:	00 c0       	rjmp	.+0      	; 0x10d2 <__stack+0xc73>
    10d2:	ef ef       	ldi	r30, 0xFF	; 255
    10d4:	ff e3       	ldi	r31, 0x3F	; 63
    10d6:	31 97       	sbiw	r30, 0x01	; 1
    10d8:	f1 f7       	brne	.-4      	; 0x10d6 <__stack+0xc77>
    10da:	00 c0       	rjmp	.+0      	; 0x10dc <__stack+0xc7d>
    10dc:	ef ef       	ldi	r30, 0xFF	; 255
    10de:	ff e3       	ldi	r31, 0x3F	; 63
    10e0:	31 97       	sbiw	r30, 0x01	; 1
    10e2:	f1 f7       	brne	.-4      	; 0x10e0 <__stack+0xc81>
    10e4:	00 c0       	rjmp	.+0      	; 0x10e6 <__stack+0xc87>
    10e6:	ef ef       	ldi	r30, 0xFF	; 255
    10e8:	ff e3       	ldi	r31, 0x3F	; 63
    10ea:	31 97       	sbiw	r30, 0x01	; 1
    10ec:	f1 f7       	brne	.-4      	; 0x10ea <__stack+0xc8b>
    10ee:	00 c0       	rjmp	.+0      	; 0x10f0 <__stack+0xc91>
    10f0:	ef ef       	ldi	r30, 0xFF	; 255
    10f2:	ff e3       	ldi	r31, 0x3F	; 63
    10f4:	31 97       	sbiw	r30, 0x01	; 1
    10f6:	f1 f7       	brne	.-4      	; 0x10f4 <__stack+0xc95>
    10f8:	00 c0       	rjmp	.+0      	; 0x10fa <__stack+0xc9b>
    10fa:	ef ef       	ldi	r30, 0xFF	; 255
    10fc:	ff e3       	ldi	r31, 0x3F	; 63
    10fe:	31 97       	sbiw	r30, 0x01	; 1
    1100:	f1 f7       	brne	.-4      	; 0x10fe <__stack+0xc9f>
    1102:	00 c0       	rjmp	.+0      	; 0x1104 <__stack+0xca5>
    1104:	ef ef       	ldi	r30, 0xFF	; 255
    1106:	ff e3       	ldi	r31, 0x3F	; 63
    1108:	31 97       	sbiw	r30, 0x01	; 1
    110a:	f1 f7       	brne	.-4      	; 0x1108 <__stack+0xca9>
    110c:	00 c0       	rjmp	.+0      	; 0x110e <__stack+0xcaf>
    110e:	ef ef       	ldi	r30, 0xFF	; 255
    1110:	ff e3       	ldi	r31, 0x3F	; 63
    1112:	31 97       	sbiw	r30, 0x01	; 1
    1114:	f1 f7       	brne	.-4      	; 0x1112 <__stack+0xcb3>
    1116:	00 c0       	rjmp	.+0      	; 0x1118 <__stack+0xcb9>
    1118:	ef ef       	ldi	r30, 0xFF	; 255
    111a:	ff e3       	ldi	r31, 0x3F	; 63
    111c:	31 97       	sbiw	r30, 0x01	; 1
    111e:	f1 f7       	brne	.-4      	; 0x111c <__stack+0xcbd>
    1120:	00 c0       	rjmp	.+0      	; 0x1122 <__stack+0xcc3>
    1122:	ef ef       	ldi	r30, 0xFF	; 255
    1124:	ff e3       	ldi	r31, 0x3F	; 63
    1126:	31 97       	sbiw	r30, 0x01	; 1
    1128:	f1 f7       	brne	.-4      	; 0x1126 <__stack+0xcc7>
    112a:	00 c0       	rjmp	.+0      	; 0x112c <__stack+0xccd>
    112c:	ef ef       	ldi	r30, 0xFF	; 255
    112e:	ff e3       	ldi	r31, 0x3F	; 63
    1130:	31 97       	sbiw	r30, 0x01	; 1
    1132:	f1 f7       	brne	.-4      	; 0x1130 <__stack+0xcd1>
    1134:	00 c0       	rjmp	.+0      	; 0x1136 <__stack+0xcd7>
    1136:	ef ef       	ldi	r30, 0xFF	; 255
    1138:	ff e3       	ldi	r31, 0x3F	; 63
    113a:	31 97       	sbiw	r30, 0x01	; 1
    113c:	f1 f7       	brne	.-4      	; 0x113a <__stack+0xcdb>
    113e:	00 c0       	rjmp	.+0      	; 0x1140 <__stack+0xce1>
    1140:	ef ef       	ldi	r30, 0xFF	; 255
    1142:	ff e3       	ldi	r31, 0x3F	; 63
    1144:	31 97       	sbiw	r30, 0x01	; 1
    1146:	f1 f7       	brne	.-4      	; 0x1144 <__stack+0xce5>
    1148:	00 c0       	rjmp	.+0      	; 0x114a <__stack+0xceb>
    114a:	ef ef       	ldi	r30, 0xFF	; 255
    114c:	ff e3       	ldi	r31, 0x3F	; 63
    114e:	31 97       	sbiw	r30, 0x01	; 1
    1150:	f1 f7       	brne	.-4      	; 0x114e <__stack+0xcef>
    1152:	00 c0       	rjmp	.+0      	; 0x1154 <__stack+0xcf5>
    1154:	ef ef       	ldi	r30, 0xFF	; 255
    1156:	ff e3       	ldi	r31, 0x3F	; 63
    1158:	31 97       	sbiw	r30, 0x01	; 1
    115a:	f1 f7       	brne	.-4      	; 0x1158 <__stack+0xcf9>
    115c:	00 c0       	rjmp	.+0      	; 0x115e <__stack+0xcff>
    115e:	ef ef       	ldi	r30, 0xFF	; 255
    1160:	ff e3       	ldi	r31, 0x3F	; 63
    1162:	31 97       	sbiw	r30, 0x01	; 1
    1164:	f1 f7       	brne	.-4      	; 0x1162 <__stack+0xd03>
    1166:	00 c0       	rjmp	.+0      	; 0x1168 <__stack+0xd09>
    1168:	ef ef       	ldi	r30, 0xFF	; 255
    116a:	ff e3       	ldi	r31, 0x3F	; 63
    116c:	31 97       	sbiw	r30, 0x01	; 1
    116e:	f1 f7       	brne	.-4      	; 0x116c <__stack+0xd0d>
    1170:	00 c0       	rjmp	.+0      	; 0x1172 <__stack+0xd13>
    1172:	ef ef       	ldi	r30, 0xFF	; 255
    1174:	ff e3       	ldi	r31, 0x3F	; 63
    1176:	31 97       	sbiw	r30, 0x01	; 1
    1178:	f1 f7       	brne	.-4      	; 0x1176 <__stack+0xd17>
    117a:	00 c0       	rjmp	.+0      	; 0x117c <__stack+0xd1d>
    117c:	ef ef       	ldi	r30, 0xFF	; 255
    117e:	ff e3       	ldi	r31, 0x3F	; 63
    1180:	31 97       	sbiw	r30, 0x01	; 1
    1182:	f1 f7       	brne	.-4      	; 0x1180 <__stack+0xd21>
    1184:	00 c0       	rjmp	.+0      	; 0x1186 <__stack+0xd27>
    1186:	ef ef       	ldi	r30, 0xFF	; 255
    1188:	ff e3       	ldi	r31, 0x3F	; 63
    118a:	31 97       	sbiw	r30, 0x01	; 1
    118c:	f1 f7       	brne	.-4      	; 0x118a <__stack+0xd2b>
    118e:	00 c0       	rjmp	.+0      	; 0x1190 <__stack+0xd31>
    1190:	ef ef       	ldi	r30, 0xFF	; 255
    1192:	ff e3       	ldi	r31, 0x3F	; 63
    1194:	31 97       	sbiw	r30, 0x01	; 1
    1196:	f1 f7       	brne	.-4      	; 0x1194 <__stack+0xd35>
    1198:	00 c0       	rjmp	.+0      	; 0x119a <__stack+0xd3b>
    119a:	ef ef       	ldi	r30, 0xFF	; 255
    119c:	ff e3       	ldi	r31, 0x3F	; 63
    119e:	31 97       	sbiw	r30, 0x01	; 1
    11a0:	f1 f7       	brne	.-4      	; 0x119e <__stack+0xd3f>
    11a2:	00 c0       	rjmp	.+0      	; 0x11a4 <__stack+0xd45>
    11a4:	ef ef       	ldi	r30, 0xFF	; 255
    11a6:	ff e3       	ldi	r31, 0x3F	; 63
    11a8:	31 97       	sbiw	r30, 0x01	; 1
    11aa:	f1 f7       	brne	.-4      	; 0x11a8 <__stack+0xd49>
    11ac:	00 c0       	rjmp	.+0      	; 0x11ae <__stack+0xd4f>
    11ae:	ef ef       	ldi	r30, 0xFF	; 255
    11b0:	ff e3       	ldi	r31, 0x3F	; 63
    11b2:	31 97       	sbiw	r30, 0x01	; 1
    11b4:	f1 f7       	brne	.-4      	; 0x11b2 <__stack+0xd53>
    11b6:	00 c0       	rjmp	.+0      	; 0x11b8 <__stack+0xd59>
    11b8:	ef ef       	ldi	r30, 0xFF	; 255
    11ba:	ff e3       	ldi	r31, 0x3F	; 63
    11bc:	31 97       	sbiw	r30, 0x01	; 1
    11be:	f1 f7       	brne	.-4      	; 0x11bc <__stack+0xd5d>
    11c0:	00 c0       	rjmp	.+0      	; 0x11c2 <__stack+0xd63>
    11c2:	ef ef       	ldi	r30, 0xFF	; 255
    11c4:	ff e3       	ldi	r31, 0x3F	; 63
    11c6:	31 97       	sbiw	r30, 0x01	; 1
    11c8:	f1 f7       	brne	.-4      	; 0x11c6 <__stack+0xd67>
    11ca:	00 c0       	rjmp	.+0      	; 0x11cc <__stack+0xd6d>
    11cc:	ef ef       	ldi	r30, 0xFF	; 255
    11ce:	ff e3       	ldi	r31, 0x3F	; 63
    11d0:	31 97       	sbiw	r30, 0x01	; 1
    11d2:	f1 f7       	brne	.-4      	; 0x11d0 <__stack+0xd71>
    11d4:	00 c0       	rjmp	.+0      	; 0x11d6 <__stack+0xd77>
    11d6:	ef ef       	ldi	r30, 0xFF	; 255
    11d8:	ff e3       	ldi	r31, 0x3F	; 63
    11da:	31 97       	sbiw	r30, 0x01	; 1
    11dc:	f1 f7       	brne	.-4      	; 0x11da <__stack+0xd7b>
    11de:	00 c0       	rjmp	.+0      	; 0x11e0 <__stack+0xd81>
    11e0:	ef ef       	ldi	r30, 0xFF	; 255
    11e2:	ff e3       	ldi	r31, 0x3F	; 63
    11e4:	31 97       	sbiw	r30, 0x01	; 1
    11e6:	f1 f7       	brne	.-4      	; 0x11e4 <__stack+0xd85>
    11e8:	00 c0       	rjmp	.+0      	; 0x11ea <__stack+0xd8b>
    11ea:	ef ef       	ldi	r30, 0xFF	; 255
    11ec:	ff e3       	ldi	r31, 0x3F	; 63
    11ee:	31 97       	sbiw	r30, 0x01	; 1
    11f0:	f1 f7       	brne	.-4      	; 0x11ee <__stack+0xd8f>
    11f2:	00 c0       	rjmp	.+0      	; 0x11f4 <__stack+0xd95>
    11f4:	ef ef       	ldi	r30, 0xFF	; 255
    11f6:	ff e3       	ldi	r31, 0x3F	; 63
    11f8:	31 97       	sbiw	r30, 0x01	; 1
    11fa:	f1 f7       	brne	.-4      	; 0x11f8 <__stack+0xd99>
    11fc:	00 c0       	rjmp	.+0      	; 0x11fe <__stack+0xd9f>
    11fe:	ef ef       	ldi	r30, 0xFF	; 255
    1200:	ff e3       	ldi	r31, 0x3F	; 63
    1202:	31 97       	sbiw	r30, 0x01	; 1
    1204:	f1 f7       	brne	.-4      	; 0x1202 <__stack+0xda3>
    1206:	00 c0       	rjmp	.+0      	; 0x1208 <__stack+0xda9>
    1208:	ef ef       	ldi	r30, 0xFF	; 255
    120a:	ff e3       	ldi	r31, 0x3F	; 63
    120c:	31 97       	sbiw	r30, 0x01	; 1
    120e:	f1 f7       	brne	.-4      	; 0x120c <__stack+0xdad>
    1210:	00 c0       	rjmp	.+0      	; 0x1212 <__stack+0xdb3>
    1212:	ef ef       	ldi	r30, 0xFF	; 255
    1214:	ff e3       	ldi	r31, 0x3F	; 63
    1216:	31 97       	sbiw	r30, 0x01	; 1
    1218:	f1 f7       	brne	.-4      	; 0x1216 <__stack+0xdb7>
    121a:	00 c0       	rjmp	.+0      	; 0x121c <__stack+0xdbd>
    121c:	ef ef       	ldi	r30, 0xFF	; 255
    121e:	ff e3       	ldi	r31, 0x3F	; 63
    1220:	31 97       	sbiw	r30, 0x01	; 1
    1222:	f1 f7       	brne	.-4      	; 0x1220 <__stack+0xdc1>
    1224:	00 c0       	rjmp	.+0      	; 0x1226 <__stack+0xdc7>
    1226:	ef ef       	ldi	r30, 0xFF	; 255
    1228:	ff e3       	ldi	r31, 0x3F	; 63
    122a:	31 97       	sbiw	r30, 0x01	; 1
    122c:	f1 f7       	brne	.-4      	; 0x122a <__stack+0xdcb>
    122e:	00 c0       	rjmp	.+0      	; 0x1230 <__stack+0xdd1>
    1230:	ef ef       	ldi	r30, 0xFF	; 255
    1232:	ff e3       	ldi	r31, 0x3F	; 63
    1234:	31 97       	sbiw	r30, 0x01	; 1
    1236:	f1 f7       	brne	.-4      	; 0x1234 <__stack+0xdd5>
    1238:	00 c0       	rjmp	.+0      	; 0x123a <__stack+0xddb>
    123a:	ef ef       	ldi	r30, 0xFF	; 255
    123c:	ff e3       	ldi	r31, 0x3F	; 63
    123e:	31 97       	sbiw	r30, 0x01	; 1
    1240:	f1 f7       	brne	.-4      	; 0x123e <__stack+0xddf>
    1242:	00 c0       	rjmp	.+0      	; 0x1244 <__stack+0xde5>
    1244:	ef ef       	ldi	r30, 0xFF	; 255
    1246:	ff e3       	ldi	r31, 0x3F	; 63
    1248:	31 97       	sbiw	r30, 0x01	; 1
    124a:	f1 f7       	brne	.-4      	; 0x1248 <__stack+0xde9>
    124c:	00 c0       	rjmp	.+0      	; 0x124e <__stack+0xdef>
    124e:	ef ef       	ldi	r30, 0xFF	; 255
    1250:	ff e3       	ldi	r31, 0x3F	; 63
    1252:	31 97       	sbiw	r30, 0x01	; 1
    1254:	f1 f7       	brne	.-4      	; 0x1252 <__stack+0xdf3>
    1256:	00 c0       	rjmp	.+0      	; 0x1258 <__stack+0xdf9>
    1258:	ef ef       	ldi	r30, 0xFF	; 255
    125a:	ff e3       	ldi	r31, 0x3F	; 63
    125c:	31 97       	sbiw	r30, 0x01	; 1
    125e:	f1 f7       	brne	.-4      	; 0x125c <__stack+0xdfd>
    1260:	00 c0       	rjmp	.+0      	; 0x1262 <__stack+0xe03>
    1262:	ef ef       	ldi	r30, 0xFF	; 255
    1264:	ff e3       	ldi	r31, 0x3F	; 63
    1266:	31 97       	sbiw	r30, 0x01	; 1
    1268:	f1 f7       	brne	.-4      	; 0x1266 <__stack+0xe07>
    126a:	00 c0       	rjmp	.+0      	; 0x126c <__stack+0xe0d>
    126c:	ef ef       	ldi	r30, 0xFF	; 255
    126e:	ff e3       	ldi	r31, 0x3F	; 63
    1270:	31 97       	sbiw	r30, 0x01	; 1
    1272:	f1 f7       	brne	.-4      	; 0x1270 <__stack+0xe11>
    1274:	00 c0       	rjmp	.+0      	; 0x1276 <__stack+0xe17>
    1276:	ef ef       	ldi	r30, 0xFF	; 255
    1278:	ff e3       	ldi	r31, 0x3F	; 63
    127a:	31 97       	sbiw	r30, 0x01	; 1
    127c:	f1 f7       	brne	.-4      	; 0x127a <__stack+0xe1b>
    127e:	00 c0       	rjmp	.+0      	; 0x1280 <__stack+0xe21>
    1280:	ef ef       	ldi	r30, 0xFF	; 255
    1282:	ff e3       	ldi	r31, 0x3F	; 63
    1284:	31 97       	sbiw	r30, 0x01	; 1
    1286:	f1 f7       	brne	.-4      	; 0x1284 <__stack+0xe25>
    1288:	00 c0       	rjmp	.+0      	; 0x128a <__stack+0xe2b>
    128a:	ef ef       	ldi	r30, 0xFF	; 255
    128c:	ff e3       	ldi	r31, 0x3F	; 63
    128e:	31 97       	sbiw	r30, 0x01	; 1
    1290:	f1 f7       	brne	.-4      	; 0x128e <__stack+0xe2f>
    1292:	00 c0       	rjmp	.+0      	; 0x1294 <__stack+0xe35>
    1294:	ef ef       	ldi	r30, 0xFF	; 255
    1296:	ff e3       	ldi	r31, 0x3F	; 63
    1298:	31 97       	sbiw	r30, 0x01	; 1
    129a:	f1 f7       	brne	.-4      	; 0x1298 <__stack+0xe39>
    129c:	00 c0       	rjmp	.+0      	; 0x129e <__stack+0xe3f>
    129e:	ef ef       	ldi	r30, 0xFF	; 255
    12a0:	ff e3       	ldi	r31, 0x3F	; 63
    12a2:	31 97       	sbiw	r30, 0x01	; 1
    12a4:	f1 f7       	brne	.-4      	; 0x12a2 <__stack+0xe43>
    12a6:	00 c0       	rjmp	.+0      	; 0x12a8 <__stack+0xe49>
    12a8:	ef ef       	ldi	r30, 0xFF	; 255
    12aa:	ff e3       	ldi	r31, 0x3F	; 63
    12ac:	31 97       	sbiw	r30, 0x01	; 1
    12ae:	f1 f7       	brne	.-4      	; 0x12ac <__stack+0xe4d>
    12b0:	00 c0       	rjmp	.+0      	; 0x12b2 <__stack+0xe53>
    12b2:	ef ef       	ldi	r30, 0xFF	; 255
    12b4:	ff e3       	ldi	r31, 0x3F	; 63
    12b6:	31 97       	sbiw	r30, 0x01	; 1
    12b8:	f1 f7       	brne	.-4      	; 0x12b6 <__stack+0xe57>
    12ba:	00 c0       	rjmp	.+0      	; 0x12bc <__stack+0xe5d>
    12bc:	ef ef       	ldi	r30, 0xFF	; 255
    12be:	ff e3       	ldi	r31, 0x3F	; 63
    12c0:	31 97       	sbiw	r30, 0x01	; 1
    12c2:	f1 f7       	brne	.-4      	; 0x12c0 <__stack+0xe61>
    12c4:	00 c0       	rjmp	.+0      	; 0x12c6 <__stack+0xe67>
    12c6:	ef ef       	ldi	r30, 0xFF	; 255
    12c8:	ff e3       	ldi	r31, 0x3F	; 63
    12ca:	31 97       	sbiw	r30, 0x01	; 1
    12cc:	f1 f7       	brne	.-4      	; 0x12ca <__stack+0xe6b>
    12ce:	00 c0       	rjmp	.+0      	; 0x12d0 <__stack+0xe71>
    12d0:	ef ef       	ldi	r30, 0xFF	; 255
    12d2:	ff e3       	ldi	r31, 0x3F	; 63
    12d4:	31 97       	sbiw	r30, 0x01	; 1
    12d6:	f1 f7       	brne	.-4      	; 0x12d4 <__stack+0xe75>
    12d8:	00 c0       	rjmp	.+0      	; 0x12da <__stack+0xe7b>
    12da:	ef ef       	ldi	r30, 0xFF	; 255
    12dc:	ff e3       	ldi	r31, 0x3F	; 63
    12de:	31 97       	sbiw	r30, 0x01	; 1
    12e0:	f1 f7       	brne	.-4      	; 0x12de <__stack+0xe7f>
    12e2:	00 c0       	rjmp	.+0      	; 0x12e4 <__stack+0xe85>
    12e4:	ef ef       	ldi	r30, 0xFF	; 255
    12e6:	ff e3       	ldi	r31, 0x3F	; 63
    12e8:	31 97       	sbiw	r30, 0x01	; 1
    12ea:	f1 f7       	brne	.-4      	; 0x12e8 <__stack+0xe89>
    12ec:	00 c0       	rjmp	.+0      	; 0x12ee <__stack+0xe8f>
    12ee:	ef ef       	ldi	r30, 0xFF	; 255
    12f0:	ff e3       	ldi	r31, 0x3F	; 63
    12f2:	31 97       	sbiw	r30, 0x01	; 1
    12f4:	f1 f7       	brne	.-4      	; 0x12f2 <__stack+0xe93>
    12f6:	00 c0       	rjmp	.+0      	; 0x12f8 <__stack+0xe99>
    12f8:	ef ef       	ldi	r30, 0xFF	; 255
    12fa:	ff e3       	ldi	r31, 0x3F	; 63
    12fc:	31 97       	sbiw	r30, 0x01	; 1
    12fe:	f1 f7       	brne	.-4      	; 0x12fc <__stack+0xe9d>
    1300:	00 c0       	rjmp	.+0      	; 0x1302 <__stack+0xea3>
    1302:	ef ef       	ldi	r30, 0xFF	; 255
    1304:	ff e3       	ldi	r31, 0x3F	; 63
    1306:	31 97       	sbiw	r30, 0x01	; 1
    1308:	f1 f7       	brne	.-4      	; 0x1306 <__stack+0xea7>
    130a:	00 c0       	rjmp	.+0      	; 0x130c <__stack+0xead>
    130c:	ef ef       	ldi	r30, 0xFF	; 255
    130e:	ff e3       	ldi	r31, 0x3F	; 63
    1310:	31 97       	sbiw	r30, 0x01	; 1
    1312:	f1 f7       	brne	.-4      	; 0x1310 <__stack+0xeb1>
    1314:	00 c0       	rjmp	.+0      	; 0x1316 <__stack+0xeb7>
    1316:	ef ef       	ldi	r30, 0xFF	; 255
    1318:	ff e3       	ldi	r31, 0x3F	; 63
    131a:	31 97       	sbiw	r30, 0x01	; 1
    131c:	f1 f7       	brne	.-4      	; 0x131a <__stack+0xebb>
    131e:	00 c0       	rjmp	.+0      	; 0x1320 <__stack+0xec1>
    1320:	ef ef       	ldi	r30, 0xFF	; 255
    1322:	ff e3       	ldi	r31, 0x3F	; 63
    1324:	31 97       	sbiw	r30, 0x01	; 1
    1326:	f1 f7       	brne	.-4      	; 0x1324 <__stack+0xec5>
    1328:	00 c0       	rjmp	.+0      	; 0x132a <__stack+0xecb>
    132a:	ef ef       	ldi	r30, 0xFF	; 255
    132c:	ff e3       	ldi	r31, 0x3F	; 63
    132e:	31 97       	sbiw	r30, 0x01	; 1
    1330:	f1 f7       	brne	.-4      	; 0x132e <__stack+0xecf>
    1332:	00 c0       	rjmp	.+0      	; 0x1334 <__stack+0xed5>
    1334:	ef ef       	ldi	r30, 0xFF	; 255
    1336:	ff e3       	ldi	r31, 0x3F	; 63
    1338:	31 97       	sbiw	r30, 0x01	; 1
    133a:	f1 f7       	brne	.-4      	; 0x1338 <__stack+0xed9>
    133c:	00 c0       	rjmp	.+0      	; 0x133e <__stack+0xedf>
    133e:	ef ef       	ldi	r30, 0xFF	; 255
    1340:	ff e3       	ldi	r31, 0x3F	; 63
    1342:	31 97       	sbiw	r30, 0x01	; 1
    1344:	f1 f7       	brne	.-4      	; 0x1342 <__stack+0xee3>
    1346:	00 c0       	rjmp	.+0      	; 0x1348 <__stack+0xee9>
    1348:	ef ef       	ldi	r30, 0xFF	; 255
    134a:	ff e3       	ldi	r31, 0x3F	; 63
    134c:	31 97       	sbiw	r30, 0x01	; 1
    134e:	f1 f7       	brne	.-4      	; 0x134c <__stack+0xeed>
    1350:	00 c0       	rjmp	.+0      	; 0x1352 <__stack+0xef3>
    1352:	ef ef       	ldi	r30, 0xFF	; 255
    1354:	ff e3       	ldi	r31, 0x3F	; 63
    1356:	31 97       	sbiw	r30, 0x01	; 1
    1358:	f1 f7       	brne	.-4      	; 0x1356 <__stack+0xef7>
    135a:	00 c0       	rjmp	.+0      	; 0x135c <__stack+0xefd>
    135c:	8d c6       	rjmp	.+3354   	; 0x2078 <_etext+0xd16>

0000135e <_exit>:
    135e:	f8 94       	cli

00001360 <__stop_program>:
    1360:	ff cf       	rjmp	.-2      	; 0x1360 <__stop_program>
