
bin/Release/bled.elf:     file format elf32-avr

Sections:
Idx Name          Size      VMA       LMA       File off  Algn
  0 .text         00000ba6  00000000  00000000  00000074  2**1
                  CONTENTS, ALLOC, LOAD, READONLY, CODE
  1 .data         00000000  00800060  00000ba6  00000c1a  2**0
                  CONTENTS, ALLOC, LOAD, DATA
  2 .stab         000006cc  00000000  00000000  00000c1c  2**2
                  CONTENTS, READONLY, DEBUGGING
  3 .stabstr      00000054  00000000  00000000  000012e8  2**0
                  CONTENTS, READONLY, DEBUGGING
  4 .comment      00000011  00000000  00000000  0000133c  2**0
                  CONTENTS, READONLY

Disassembly of section .text:

00000000 <__vectors>:
   0:	12 c0       	rjmp	.+36     	; 0x26 <__ctors_end>
   2:	19 c0       	rjmp	.+50     	; 0x36 <__bad_interrupt>
   4:	18 c0       	rjmp	.+48     	; 0x36 <__bad_interrupt>
   6:	17 c0       	rjmp	.+46     	; 0x36 <__bad_interrupt>
   8:	16 c0       	rjmp	.+44     	; 0x36 <__bad_interrupt>
   a:	15 c0       	rjmp	.+42     	; 0x36 <__bad_interrupt>
   c:	14 c0       	rjmp	.+40     	; 0x36 <__bad_interrupt>
   e:	13 c0       	rjmp	.+38     	; 0x36 <__bad_interrupt>
  10:	12 c0       	rjmp	.+36     	; 0x36 <__bad_interrupt>
  12:	11 c0       	rjmp	.+34     	; 0x36 <__bad_interrupt>
  14:	10 c0       	rjmp	.+32     	; 0x36 <__bad_interrupt>
  16:	0f c0       	rjmp	.+30     	; 0x36 <__bad_interrupt>
  18:	0e c0       	rjmp	.+28     	; 0x36 <__bad_interrupt>
  1a:	0d c0       	rjmp	.+26     	; 0x36 <__bad_interrupt>
  1c:	0c c0       	rjmp	.+24     	; 0x36 <__bad_interrupt>
  1e:	0b c0       	rjmp	.+22     	; 0x36 <__bad_interrupt>
  20:	0a c0       	rjmp	.+20     	; 0x36 <__bad_interrupt>
  22:	09 c0       	rjmp	.+18     	; 0x36 <__bad_interrupt>
  24:	08 c0       	rjmp	.+16     	; 0x36 <__bad_interrupt>

00000026 <__ctors_end>:
  26:	11 24       	eor	r1, r1
  28:	1f be       	out	0x3f, r1	; 63
  2a:	cf e5       	ldi	r28, 0x5F	; 95
  2c:	d4 e0       	ldi	r29, 0x04	; 4
  2e:	de bf       	out	0x3e, r29	; 62
  30:	cd bf       	out	0x3d, r28	; 61
  32:	02 d0       	rcall	.+4      	; 0x38 <main>
  34:	b6 c5       	rjmp	.+2924   	; 0xba2 <_exit>

00000036 <__bad_interrupt>:
  36:	e4 cf       	rjmp	.-56     	; 0x0 <__vectors>

00000038 <main>:
  38:	8f e3       	ldi	r24, 0x3F	; 63
  3a:	87 bb       	out	0x17, r24	; 23
  3c:	80 ee       	ldi	r24, 0xE0	; 224
  3e:	84 bb       	out	0x14, r24	; 20
  40:	32 e0       	ldi	r19, 0x02	; 2
  42:	84 e0       	ldi	r24, 0x04	; 4
  44:	98 e0       	ldi	r25, 0x08	; 8
  46:	20 e1       	ldi	r18, 0x10	; 16
  48:	40 e2       	ldi	r20, 0x20	; 32
  4a:	38 bb       	out	0x18, r19	; 24
  4c:	ef ef       	ldi	r30, 0xFF	; 255
  4e:	ff e3       	ldi	r31, 0x3F	; 63
  50:	31 97       	sbiw	r30, 0x01	; 1
  52:	f1 f7       	brne	.-4      	; 0x50 <__SREG__+0x11>
  54:	00 c0       	rjmp	.+0      	; 0x56 <__SREG__+0x17>
  56:	ef ef       	ldi	r30, 0xFF	; 255
  58:	ff e3       	ldi	r31, 0x3F	; 63
  5a:	31 97       	sbiw	r30, 0x01	; 1
  5c:	f1 f7       	brne	.-4      	; 0x5a <__SREG__+0x1b>
  5e:	00 c0       	rjmp	.+0      	; 0x60 <__SREG__+0x21>
  60:	ef ef       	ldi	r30, 0xFF	; 255
  62:	ff e3       	ldi	r31, 0x3F	; 63
  64:	31 97       	sbiw	r30, 0x01	; 1
  66:	f1 f7       	brne	.-4      	; 0x64 <__SREG__+0x25>
  68:	00 c0       	rjmp	.+0      	; 0x6a <__SREG__+0x2b>
  6a:	ef ef       	ldi	r30, 0xFF	; 255
  6c:	ff e3       	ldi	r31, 0x3F	; 63
  6e:	31 97       	sbiw	r30, 0x01	; 1
  70:	f1 f7       	brne	.-4      	; 0x6e <__SREG__+0x2f>
  72:	00 c0       	rjmp	.+0      	; 0x74 <__SREG__+0x35>
  74:	ef ef       	ldi	r30, 0xFF	; 255
  76:	ff e3       	ldi	r31, 0x3F	; 63
  78:	31 97       	sbiw	r30, 0x01	; 1
  7a:	f1 f7       	brne	.-4      	; 0x78 <__SREG__+0x39>
  7c:	00 c0       	rjmp	.+0      	; 0x7e <__SREG__+0x3f>
  7e:	ef ef       	ldi	r30, 0xFF	; 255
  80:	ff e3       	ldi	r31, 0x3F	; 63
  82:	31 97       	sbiw	r30, 0x01	; 1
  84:	f1 f7       	brne	.-4      	; 0x82 <__SREG__+0x43>
  86:	00 c0       	rjmp	.+0      	; 0x88 <__SREG__+0x49>
  88:	ef ef       	ldi	r30, 0xFF	; 255
  8a:	ff e3       	ldi	r31, 0x3F	; 63
  8c:	31 97       	sbiw	r30, 0x01	; 1
  8e:	f1 f7       	brne	.-4      	; 0x8c <__SREG__+0x4d>
  90:	00 c0       	rjmp	.+0      	; 0x92 <__SREG__+0x53>
  92:	ef ef       	ldi	r30, 0xFF	; 255
  94:	ff e3       	ldi	r31, 0x3F	; 63
  96:	31 97       	sbiw	r30, 0x01	; 1
  98:	f1 f7       	brne	.-4      	; 0x96 <__SREG__+0x57>
  9a:	00 c0       	rjmp	.+0      	; 0x9c <__SREG__+0x5d>
  9c:	ef ef       	ldi	r30, 0xFF	; 255
  9e:	ff e3       	ldi	r31, 0x3F	; 63
  a0:	31 97       	sbiw	r30, 0x01	; 1
  a2:	f1 f7       	brne	.-4      	; 0xa0 <__SREG__+0x61>
  a4:	00 c0       	rjmp	.+0      	; 0xa6 <__SREG__+0x67>
  a6:	ef ef       	ldi	r30, 0xFF	; 255
  a8:	ff e3       	ldi	r31, 0x3F	; 63
  aa:	31 97       	sbiw	r30, 0x01	; 1
  ac:	f1 f7       	brne	.-4      	; 0xaa <__SREG__+0x6b>
  ae:	00 c0       	rjmp	.+0      	; 0xb0 <__SREG__+0x71>
  b0:	88 bb       	out	0x18, r24	; 24
  b2:	ef ef       	ldi	r30, 0xFF	; 255
  b4:	ff e3       	ldi	r31, 0x3F	; 63
  b6:	31 97       	sbiw	r30, 0x01	; 1
  b8:	f1 f7       	brne	.-4      	; 0xb6 <__SREG__+0x77>
  ba:	00 c0       	rjmp	.+0      	; 0xbc <__SREG__+0x7d>
  bc:	ef ef       	ldi	r30, 0xFF	; 255
  be:	ff e3       	ldi	r31, 0x3F	; 63
  c0:	31 97       	sbiw	r30, 0x01	; 1
  c2:	f1 f7       	brne	.-4      	; 0xc0 <__SREG__+0x81>
  c4:	00 c0       	rjmp	.+0      	; 0xc6 <__SREG__+0x87>
  c6:	ef ef       	ldi	r30, 0xFF	; 255
  c8:	ff e3       	ldi	r31, 0x3F	; 63
  ca:	31 97       	sbiw	r30, 0x01	; 1
  cc:	f1 f7       	brne	.-4      	; 0xca <__SREG__+0x8b>
  ce:	00 c0       	rjmp	.+0      	; 0xd0 <__SREG__+0x91>
  d0:	ef ef       	ldi	r30, 0xFF	; 255
  d2:	ff e3       	ldi	r31, 0x3F	; 63
  d4:	31 97       	sbiw	r30, 0x01	; 1
  d6:	f1 f7       	brne	.-4      	; 0xd4 <__SREG__+0x95>
  d8:	00 c0       	rjmp	.+0      	; 0xda <__SREG__+0x9b>
  da:	ef ef       	ldi	r30, 0xFF	; 255
  dc:	ff e3       	ldi	r31, 0x3F	; 63
  de:	31 97       	sbiw	r30, 0x01	; 1
  e0:	f1 f7       	brne	.-4      	; 0xde <__SREG__+0x9f>
  e2:	00 c0       	rjmp	.+0      	; 0xe4 <__SREG__+0xa5>
  e4:	ef ef       	ldi	r30, 0xFF	; 255
  e6:	ff e3       	ldi	r31, 0x3F	; 63
  e8:	31 97       	sbiw	r30, 0x01	; 1
  ea:	f1 f7       	brne	.-4      	; 0xe8 <__SREG__+0xa9>
  ec:	00 c0       	rjmp	.+0      	; 0xee <__SREG__+0xaf>
  ee:	ef ef       	ldi	r30, 0xFF	; 255
  f0:	ff e3       	ldi	r31, 0x3F	; 63
  f2:	31 97       	sbiw	r30, 0x01	; 1
  f4:	f1 f7       	brne	.-4      	; 0xf2 <__SREG__+0xb3>
  f6:	00 c0       	rjmp	.+0      	; 0xf8 <__SREG__+0xb9>
  f8:	ef ef       	ldi	r30, 0xFF	; 255
  fa:	ff e3       	ldi	r31, 0x3F	; 63
  fc:	31 97       	sbiw	r30, 0x01	; 1
  fe:	f1 f7       	brne	.-4      	; 0xfc <__SREG__+0xbd>
 100:	00 c0       	rjmp	.+0      	; 0x102 <__SREG__+0xc3>
 102:	ef ef       	ldi	r30, 0xFF	; 255
 104:	ff e3       	ldi	r31, 0x3F	; 63
 106:	31 97       	sbiw	r30, 0x01	; 1
 108:	f1 f7       	brne	.-4      	; 0x106 <__SREG__+0xc7>
 10a:	00 c0       	rjmp	.+0      	; 0x10c <__SREG__+0xcd>
 10c:	ef ef       	ldi	r30, 0xFF	; 255
 10e:	ff e3       	ldi	r31, 0x3F	; 63
 110:	31 97       	sbiw	r30, 0x01	; 1
 112:	f1 f7       	brne	.-4      	; 0x110 <__SREG__+0xd1>
 114:	00 c0       	rjmp	.+0      	; 0x116 <__SREG__+0xd7>
 116:	98 bb       	out	0x18, r25	; 24
 118:	ef ef       	ldi	r30, 0xFF	; 255
 11a:	ff e3       	ldi	r31, 0x3F	; 63
 11c:	31 97       	sbiw	r30, 0x01	; 1
 11e:	f1 f7       	brne	.-4      	; 0x11c <__SREG__+0xdd>
 120:	00 c0       	rjmp	.+0      	; 0x122 <__SREG__+0xe3>
 122:	ef ef       	ldi	r30, 0xFF	; 255
 124:	ff e3       	ldi	r31, 0x3F	; 63
 126:	31 97       	sbiw	r30, 0x01	; 1
 128:	f1 f7       	brne	.-4      	; 0x126 <__SREG__+0xe7>
 12a:	00 c0       	rjmp	.+0      	; 0x12c <__SREG__+0xed>
 12c:	ef ef       	ldi	r30, 0xFF	; 255
 12e:	ff e3       	ldi	r31, 0x3F	; 63
 130:	31 97       	sbiw	r30, 0x01	; 1
 132:	f1 f7       	brne	.-4      	; 0x130 <__SREG__+0xf1>
 134:	00 c0       	rjmp	.+0      	; 0x136 <__SREG__+0xf7>
 136:	ef ef       	ldi	r30, 0xFF	; 255
 138:	ff e3       	ldi	r31, 0x3F	; 63
 13a:	31 97       	sbiw	r30, 0x01	; 1
 13c:	f1 f7       	brne	.-4      	; 0x13a <__SREG__+0xfb>
 13e:	00 c0       	rjmp	.+0      	; 0x140 <__SREG__+0x101>
 140:	ef ef       	ldi	r30, 0xFF	; 255
 142:	ff e3       	ldi	r31, 0x3F	; 63
 144:	31 97       	sbiw	r30, 0x01	; 1
 146:	f1 f7       	brne	.-4      	; 0x144 <__SREG__+0x105>
 148:	00 c0       	rjmp	.+0      	; 0x14a <__SREG__+0x10b>
 14a:	ef ef       	ldi	r30, 0xFF	; 255
 14c:	ff e3       	ldi	r31, 0x3F	; 63
 14e:	31 97       	sbiw	r30, 0x01	; 1
 150:	f1 f7       	brne	.-4      	; 0x14e <__SREG__+0x10f>
 152:	00 c0       	rjmp	.+0      	; 0x154 <__SREG__+0x115>
 154:	ef ef       	ldi	r30, 0xFF	; 255
 156:	ff e3       	ldi	r31, 0x3F	; 63
 158:	31 97       	sbiw	r30, 0x01	; 1
 15a:	f1 f7       	brne	.-4      	; 0x158 <__SREG__+0x119>
 15c:	00 c0       	rjmp	.+0      	; 0x15e <__SREG__+0x11f>
 15e:	ef ef       	ldi	r30, 0xFF	; 255
 160:	ff e3       	ldi	r31, 0x3F	; 63
 162:	31 97       	sbiw	r30, 0x01	; 1
 164:	f1 f7       	brne	.-4      	; 0x162 <__SREG__+0x123>
 166:	00 c0       	rjmp	.+0      	; 0x168 <__SREG__+0x129>
 168:	ef ef       	ldi	r30, 0xFF	; 255
 16a:	ff e3       	ldi	r31, 0x3F	; 63
 16c:	31 97       	sbiw	r30, 0x01	; 1
 16e:	f1 f7       	brne	.-4      	; 0x16c <__SREG__+0x12d>
 170:	00 c0       	rjmp	.+0      	; 0x172 <__SREG__+0x133>
 172:	ef ef       	ldi	r30, 0xFF	; 255
 174:	ff e3       	ldi	r31, 0x3F	; 63
 176:	31 97       	sbiw	r30, 0x01	; 1
 178:	f1 f7       	brne	.-4      	; 0x176 <__SREG__+0x137>
 17a:	00 c0       	rjmp	.+0      	; 0x17c <__SREG__+0x13d>
 17c:	28 bb       	out	0x18, r18	; 24
 17e:	ef ef       	ldi	r30, 0xFF	; 255
 180:	ff e3       	ldi	r31, 0x3F	; 63
 182:	31 97       	sbiw	r30, 0x01	; 1
 184:	f1 f7       	brne	.-4      	; 0x182 <__SREG__+0x143>
 186:	00 c0       	rjmp	.+0      	; 0x188 <__SREG__+0x149>
 188:	ef ef       	ldi	r30, 0xFF	; 255
 18a:	ff e3       	ldi	r31, 0x3F	; 63
 18c:	31 97       	sbiw	r30, 0x01	; 1
 18e:	f1 f7       	brne	.-4      	; 0x18c <__SREG__+0x14d>
 190:	00 c0       	rjmp	.+0      	; 0x192 <__SREG__+0x153>
 192:	ef ef       	ldi	r30, 0xFF	; 255
 194:	ff e3       	ldi	r31, 0x3F	; 63
 196:	31 97       	sbiw	r30, 0x01	; 1
 198:	f1 f7       	brne	.-4      	; 0x196 <__SREG__+0x157>
 19a:	00 c0       	rjmp	.+0      	; 0x19c <__SREG__+0x15d>
 19c:	ef ef       	ldi	r30, 0xFF	; 255
 19e:	ff e3       	ldi	r31, 0x3F	; 63
 1a0:	31 97       	sbiw	r30, 0x01	; 1
 1a2:	f1 f7       	brne	.-4      	; 0x1a0 <__SREG__+0x161>
 1a4:	00 c0       	rjmp	.+0      	; 0x1a6 <__SREG__+0x167>
 1a6:	ef ef       	ldi	r30, 0xFF	; 255
 1a8:	ff e3       	ldi	r31, 0x3F	; 63
 1aa:	31 97       	sbiw	r30, 0x01	; 1
 1ac:	f1 f7       	brne	.-4      	; 0x1aa <__SREG__+0x16b>
 1ae:	00 c0       	rjmp	.+0      	; 0x1b0 <__SREG__+0x171>
 1b0:	ef ef       	ldi	r30, 0xFF	; 255
 1b2:	ff e3       	ldi	r31, 0x3F	; 63
 1b4:	31 97       	sbiw	r30, 0x01	; 1
 1b6:	f1 f7       	brne	.-4      	; 0x1b4 <__SREG__+0x175>
 1b8:	00 c0       	rjmp	.+0      	; 0x1ba <__SREG__+0x17b>
 1ba:	ef ef       	ldi	r30, 0xFF	; 255
 1bc:	ff e3       	ldi	r31, 0x3F	; 63
 1be:	31 97       	sbiw	r30, 0x01	; 1
 1c0:	f1 f7       	brne	.-4      	; 0x1be <__SREG__+0x17f>
 1c2:	00 c0       	rjmp	.+0      	; 0x1c4 <__SREG__+0x185>
 1c4:	ef ef       	ldi	r30, 0xFF	; 255
 1c6:	ff e3       	ldi	r31, 0x3F	; 63
 1c8:	31 97       	sbiw	r30, 0x01	; 1
 1ca:	f1 f7       	brne	.-4      	; 0x1c8 <__SREG__+0x189>
 1cc:	00 c0       	rjmp	.+0      	; 0x1ce <__SREG__+0x18f>
 1ce:	ef ef       	ldi	r30, 0xFF	; 255
 1d0:	ff e3       	ldi	r31, 0x3F	; 63
 1d2:	31 97       	sbiw	r30, 0x01	; 1
 1d4:	f1 f7       	brne	.-4      	; 0x1d2 <__SREG__+0x193>
 1d6:	00 c0       	rjmp	.+0      	; 0x1d8 <__SREG__+0x199>
 1d8:	ef ef       	ldi	r30, 0xFF	; 255
 1da:	ff e3       	ldi	r31, 0x3F	; 63
 1dc:	31 97       	sbiw	r30, 0x01	; 1
 1de:	f1 f7       	brne	.-4      	; 0x1dc <__SREG__+0x19d>
 1e0:	00 c0       	rjmp	.+0      	; 0x1e2 <__SREG__+0x1a3>
 1e2:	48 bb       	out	0x18, r20	; 24
 1e4:	ef ef       	ldi	r30, 0xFF	; 255
 1e6:	ff e3       	ldi	r31, 0x3F	; 63
 1e8:	31 97       	sbiw	r30, 0x01	; 1
 1ea:	f1 f7       	brne	.-4      	; 0x1e8 <__SREG__+0x1a9>
 1ec:	00 c0       	rjmp	.+0      	; 0x1ee <__SREG__+0x1af>
 1ee:	ef ef       	ldi	r30, 0xFF	; 255
 1f0:	ff e3       	ldi	r31, 0x3F	; 63
 1f2:	31 97       	sbiw	r30, 0x01	; 1
 1f4:	f1 f7       	brne	.-4      	; 0x1f2 <__SREG__+0x1b3>
 1f6:	00 c0       	rjmp	.+0      	; 0x1f8 <__SREG__+0x1b9>
 1f8:	ef ef       	ldi	r30, 0xFF	; 255
 1fa:	ff e3       	ldi	r31, 0x3F	; 63
 1fc:	31 97       	sbiw	r30, 0x01	; 1
 1fe:	f1 f7       	brne	.-4      	; 0x1fc <__SREG__+0x1bd>
 200:	00 c0       	rjmp	.+0      	; 0x202 <__SREG__+0x1c3>
 202:	ef ef       	ldi	r30, 0xFF	; 255
 204:	ff e3       	ldi	r31, 0x3F	; 63
 206:	31 97       	sbiw	r30, 0x01	; 1
 208:	f1 f7       	brne	.-4      	; 0x206 <__SREG__+0x1c7>
 20a:	00 c0       	rjmp	.+0      	; 0x20c <__SREG__+0x1cd>
 20c:	ef ef       	ldi	r30, 0xFF	; 255
 20e:	ff e3       	ldi	r31, 0x3F	; 63
 210:	31 97       	sbiw	r30, 0x01	; 1
 212:	f1 f7       	brne	.-4      	; 0x210 <__SREG__+0x1d1>
 214:	00 c0       	rjmp	.+0      	; 0x216 <__SREG__+0x1d7>
 216:	ef ef       	ldi	r30, 0xFF	; 255
 218:	ff e3       	ldi	r31, 0x3F	; 63
 21a:	31 97       	sbiw	r30, 0x01	; 1
 21c:	f1 f7       	brne	.-4      	; 0x21a <__SREG__+0x1db>
 21e:	00 c0       	rjmp	.+0      	; 0x220 <__SREG__+0x1e1>
 220:	ef ef       	ldi	r30, 0xFF	; 255
 222:	ff e3       	ldi	r31, 0x3F	; 63
 224:	31 97       	sbiw	r30, 0x01	; 1
 226:	f1 f7       	brne	.-4      	; 0x224 <__SREG__+0x1e5>
 228:	00 c0       	rjmp	.+0      	; 0x22a <__SREG__+0x1eb>
 22a:	ef ef       	ldi	r30, 0xFF	; 255
 22c:	ff e3       	ldi	r31, 0x3F	; 63
 22e:	31 97       	sbiw	r30, 0x01	; 1
 230:	f1 f7       	brne	.-4      	; 0x22e <__SREG__+0x1ef>
 232:	00 c0       	rjmp	.+0      	; 0x234 <__SREG__+0x1f5>
 234:	ef ef       	ldi	r30, 0xFF	; 255
 236:	ff e3       	ldi	r31, 0x3F	; 63
 238:	31 97       	sbiw	r30, 0x01	; 1
 23a:	f1 f7       	brne	.-4      	; 0x238 <__SREG__+0x1f9>
 23c:	00 c0       	rjmp	.+0      	; 0x23e <__SREG__+0x1ff>
 23e:	ef ef       	ldi	r30, 0xFF	; 255
 240:	ff e3       	ldi	r31, 0x3F	; 63
 242:	31 97       	sbiw	r30, 0x01	; 1
 244:	f1 f7       	brne	.-4      	; 0x242 <__SREG__+0x203>
 246:	00 c0       	rjmp	.+0      	; 0x248 <__SREG__+0x209>
 248:	28 bb       	out	0x18, r18	; 24
 24a:	ef ef       	ldi	r30, 0xFF	; 255
 24c:	ff e3       	ldi	r31, 0x3F	; 63
 24e:	31 97       	sbiw	r30, 0x01	; 1
 250:	f1 f7       	brne	.-4      	; 0x24e <__SREG__+0x20f>
 252:	00 c0       	rjmp	.+0      	; 0x254 <__SREG__+0x215>
 254:	ef ef       	ldi	r30, 0xFF	; 255
 256:	ff e3       	ldi	r31, 0x3F	; 63
 258:	31 97       	sbiw	r30, 0x01	; 1
 25a:	f1 f7       	brne	.-4      	; 0x258 <__SREG__+0x219>
 25c:	00 c0       	rjmp	.+0      	; 0x25e <__SREG__+0x21f>
 25e:	ef ef       	ldi	r30, 0xFF	; 255
 260:	ff e3       	ldi	r31, 0x3F	; 63
 262:	31 97       	sbiw	r30, 0x01	; 1
 264:	f1 f7       	brne	.-4      	; 0x262 <__SREG__+0x223>
 266:	00 c0       	rjmp	.+0      	; 0x268 <__SREG__+0x229>
 268:	ef ef       	ldi	r30, 0xFF	; 255
 26a:	ff e3       	ldi	r31, 0x3F	; 63
 26c:	31 97       	sbiw	r30, 0x01	; 1
 26e:	f1 f7       	brne	.-4      	; 0x26c <__SREG__+0x22d>
 270:	00 c0       	rjmp	.+0      	; 0x272 <__SREG__+0x233>
 272:	ef ef       	ldi	r30, 0xFF	; 255
 274:	ff e3       	ldi	r31, 0x3F	; 63
 276:	31 97       	sbiw	r30, 0x01	; 1
 278:	f1 f7       	brne	.-4      	; 0x276 <__SREG__+0x237>
 27a:	00 c0       	rjmp	.+0      	; 0x27c <__SREG__+0x23d>
 27c:	ef ef       	ldi	r30, 0xFF	; 255
 27e:	ff e3       	ldi	r31, 0x3F	; 63
 280:	31 97       	sbiw	r30, 0x01	; 1
 282:	f1 f7       	brne	.-4      	; 0x280 <__SREG__+0x241>
 284:	00 c0       	rjmp	.+0      	; 0x286 <__SREG__+0x247>
 286:	ef ef       	ldi	r30, 0xFF	; 255
 288:	ff e3       	ldi	r31, 0x3F	; 63
 28a:	31 97       	sbiw	r30, 0x01	; 1
 28c:	f1 f7       	brne	.-4      	; 0x28a <__SREG__+0x24b>
 28e:	00 c0       	rjmp	.+0      	; 0x290 <__SREG__+0x251>
 290:	ef ef       	ldi	r30, 0xFF	; 255
 292:	ff e3       	ldi	r31, 0x3F	; 63
 294:	31 97       	sbiw	r30, 0x01	; 1
 296:	f1 f7       	brne	.-4      	; 0x294 <__SREG__+0x255>
 298:	00 c0       	rjmp	.+0      	; 0x29a <__SREG__+0x25b>
 29a:	ef ef       	ldi	r30, 0xFF	; 255
 29c:	ff e3       	ldi	r31, 0x3F	; 63
 29e:	31 97       	sbiw	r30, 0x01	; 1
 2a0:	f1 f7       	brne	.-4      	; 0x29e <__SREG__+0x25f>
 2a2:	00 c0       	rjmp	.+0      	; 0x2a4 <__SREG__+0x265>
 2a4:	ef ef       	ldi	r30, 0xFF	; 255
 2a6:	ff e3       	ldi	r31, 0x3F	; 63
 2a8:	31 97       	sbiw	r30, 0x01	; 1
 2aa:	f1 f7       	brne	.-4      	; 0x2a8 <__SREG__+0x269>
 2ac:	00 c0       	rjmp	.+0      	; 0x2ae <__SREG__+0x26f>
 2ae:	98 bb       	out	0x18, r25	; 24
 2b0:	ef ef       	ldi	r30, 0xFF	; 255
 2b2:	ff e3       	ldi	r31, 0x3F	; 63
 2b4:	31 97       	sbiw	r30, 0x01	; 1
 2b6:	f1 f7       	brne	.-4      	; 0x2b4 <__SREG__+0x275>
 2b8:	00 c0       	rjmp	.+0      	; 0x2ba <__SREG__+0x27b>
 2ba:	ef ef       	ldi	r30, 0xFF	; 255
 2bc:	ff e3       	ldi	r31, 0x3F	; 63
 2be:	31 97       	sbiw	r30, 0x01	; 1
 2c0:	f1 f7       	brne	.-4      	; 0x2be <__SREG__+0x27f>
 2c2:	00 c0       	rjmp	.+0      	; 0x2c4 <__SREG__+0x285>
 2c4:	ef ef       	ldi	r30, 0xFF	; 255
 2c6:	ff e3       	ldi	r31, 0x3F	; 63
 2c8:	31 97       	sbiw	r30, 0x01	; 1
 2ca:	f1 f7       	brne	.-4      	; 0x2c8 <__SREG__+0x289>
 2cc:	00 c0       	rjmp	.+0      	; 0x2ce <__SREG__+0x28f>
 2ce:	ef ef       	ldi	r30, 0xFF	; 255
 2d0:	ff e3       	ldi	r31, 0x3F	; 63
 2d2:	31 97       	sbiw	r30, 0x01	; 1
 2d4:	f1 f7       	brne	.-4      	; 0x2d2 <__SREG__+0x293>
 2d6:	00 c0       	rjmp	.+0      	; 0x2d8 <__SREG__+0x299>
 2d8:	ef ef       	ldi	r30, 0xFF	; 255
 2da:	ff e3       	ldi	r31, 0x3F	; 63
 2dc:	31 97       	sbiw	r30, 0x01	; 1
 2de:	f1 f7       	brne	.-4      	; 0x2dc <__SREG__+0x29d>
 2e0:	00 c0       	rjmp	.+0      	; 0x2e2 <__SREG__+0x2a3>
 2e2:	ef ef       	ldi	r30, 0xFF	; 255
 2e4:	ff e3       	ldi	r31, 0x3F	; 63
 2e6:	31 97       	sbiw	r30, 0x01	; 1
 2e8:	f1 f7       	brne	.-4      	; 0x2e6 <__SREG__+0x2a7>
 2ea:	00 c0       	rjmp	.+0      	; 0x2ec <__SREG__+0x2ad>
 2ec:	ef ef       	ldi	r30, 0xFF	; 255
 2ee:	ff e3       	ldi	r31, 0x3F	; 63
 2f0:	31 97       	sbiw	r30, 0x01	; 1
 2f2:	f1 f7       	brne	.-4      	; 0x2f0 <__SREG__+0x2b1>
 2f4:	00 c0       	rjmp	.+0      	; 0x2f6 <__SREG__+0x2b7>
 2f6:	ef ef       	ldi	r30, 0xFF	; 255
 2f8:	ff e3       	ldi	r31, 0x3F	; 63
 2fa:	31 97       	sbiw	r30, 0x01	; 1
 2fc:	f1 f7       	brne	.-4      	; 0x2fa <__SREG__+0x2bb>
 2fe:	00 c0       	rjmp	.+0      	; 0x300 <__SREG__+0x2c1>
 300:	ef ef       	ldi	r30, 0xFF	; 255
 302:	ff e3       	ldi	r31, 0x3F	; 63
 304:	31 97       	sbiw	r30, 0x01	; 1
 306:	f1 f7       	brne	.-4      	; 0x304 <__SREG__+0x2c5>
 308:	00 c0       	rjmp	.+0      	; 0x30a <__SREG__+0x2cb>
 30a:	ef ef       	ldi	r30, 0xFF	; 255
 30c:	ff e3       	ldi	r31, 0x3F	; 63
 30e:	31 97       	sbiw	r30, 0x01	; 1
 310:	f1 f7       	brne	.-4      	; 0x30e <__SREG__+0x2cf>
 312:	00 c0       	rjmp	.+0      	; 0x314 <__SREG__+0x2d5>
 314:	88 bb       	out	0x18, r24	; 24
 316:	ef ef       	ldi	r30, 0xFF	; 255
 318:	ff e3       	ldi	r31, 0x3F	; 63
 31a:	31 97       	sbiw	r30, 0x01	; 1
 31c:	f1 f7       	brne	.-4      	; 0x31a <__SREG__+0x2db>
 31e:	00 c0       	rjmp	.+0      	; 0x320 <__SREG__+0x2e1>
 320:	ef ef       	ldi	r30, 0xFF	; 255
 322:	ff e3       	ldi	r31, 0x3F	; 63
 324:	31 97       	sbiw	r30, 0x01	; 1
 326:	f1 f7       	brne	.-4      	; 0x324 <__SREG__+0x2e5>
 328:	00 c0       	rjmp	.+0      	; 0x32a <__SREG__+0x2eb>
 32a:	ef ef       	ldi	r30, 0xFF	; 255
 32c:	ff e3       	ldi	r31, 0x3F	; 63
 32e:	31 97       	sbiw	r30, 0x01	; 1
 330:	f1 f7       	brne	.-4      	; 0x32e <__SREG__+0x2ef>
 332:	00 c0       	rjmp	.+0      	; 0x334 <__SREG__+0x2f5>
 334:	ef ef       	ldi	r30, 0xFF	; 255
 336:	ff e3       	ldi	r31, 0x3F	; 63
 338:	31 97       	sbiw	r30, 0x01	; 1
 33a:	f1 f7       	brne	.-4      	; 0x338 <__SREG__+0x2f9>
 33c:	00 c0       	rjmp	.+0      	; 0x33e <__SREG__+0x2ff>
 33e:	ef ef       	ldi	r30, 0xFF	; 255
 340:	ff e3       	ldi	r31, 0x3F	; 63
 342:	31 97       	sbiw	r30, 0x01	; 1
 344:	f1 f7       	brne	.-4      	; 0x342 <__SREG__+0x303>
 346:	00 c0       	rjmp	.+0      	; 0x348 <__SREG__+0x309>
 348:	ef ef       	ldi	r30, 0xFF	; 255
 34a:	ff e3       	ldi	r31, 0x3F	; 63
 34c:	31 97       	sbiw	r30, 0x01	; 1
 34e:	f1 f7       	brne	.-4      	; 0x34c <__SREG__+0x30d>
 350:	00 c0       	rjmp	.+0      	; 0x352 <__SREG__+0x313>
 352:	ef ef       	ldi	r30, 0xFF	; 255
 354:	ff e3       	ldi	r31, 0x3F	; 63
 356:	31 97       	sbiw	r30, 0x01	; 1
 358:	f1 f7       	brne	.-4      	; 0x356 <__SREG__+0x317>
 35a:	00 c0       	rjmp	.+0      	; 0x35c <__SREG__+0x31d>
 35c:	ef ef       	ldi	r30, 0xFF	; 255
 35e:	ff e3       	ldi	r31, 0x3F	; 63
 360:	31 97       	sbiw	r30, 0x01	; 1
 362:	f1 f7       	brne	.-4      	; 0x360 <__SREG__+0x321>
 364:	00 c0       	rjmp	.+0      	; 0x366 <__SREG__+0x327>
 366:	ef ef       	ldi	r30, 0xFF	; 255
 368:	ff e3       	ldi	r31, 0x3F	; 63
 36a:	31 97       	sbiw	r30, 0x01	; 1
 36c:	f1 f7       	brne	.-4      	; 0x36a <__SREG__+0x32b>
 36e:	00 c0       	rjmp	.+0      	; 0x370 <__SREG__+0x331>
 370:	ef ef       	ldi	r30, 0xFF	; 255
 372:	ff e3       	ldi	r31, 0x3F	; 63
 374:	31 97       	sbiw	r30, 0x01	; 1
 376:	f1 f7       	brne	.-4      	; 0x374 <__SREG__+0x335>
 378:	00 c0       	rjmp	.+0      	; 0x37a <__SREG__+0x33b>
 37a:	9c 9b       	sbis	0x13, 4	; 19
 37c:	66 ce       	rjmp	.-820    	; 0x4a <__SREG__+0xb>
 37e:	18 ba       	out	0x18, r1	; 24
 380:	ef ef       	ldi	r30, 0xFF	; 255
 382:	ff e3       	ldi	r31, 0x3F	; 63
 384:	31 97       	sbiw	r30, 0x01	; 1
 386:	f1 f7       	brne	.-4      	; 0x384 <__SREG__+0x345>
 388:	00 c0       	rjmp	.+0      	; 0x38a <__SREG__+0x34b>
 38a:	ef ef       	ldi	r30, 0xFF	; 255
 38c:	ff e3       	ldi	r31, 0x3F	; 63
 38e:	31 97       	sbiw	r30, 0x01	; 1
 390:	f1 f7       	brne	.-4      	; 0x38e <__SREG__+0x34f>
 392:	00 c0       	rjmp	.+0      	; 0x394 <__SREG__+0x355>
 394:	ef ef       	ldi	r30, 0xFF	; 255
 396:	ff e3       	ldi	r31, 0x3F	; 63
 398:	31 97       	sbiw	r30, 0x01	; 1
 39a:	f1 f7       	brne	.-4      	; 0x398 <__SREG__+0x359>
 39c:	00 c0       	rjmp	.+0      	; 0x39e <__SREG__+0x35f>
 39e:	ef ef       	ldi	r30, 0xFF	; 255
 3a0:	ff e3       	ldi	r31, 0x3F	; 63
 3a2:	31 97       	sbiw	r30, 0x01	; 1
 3a4:	f1 f7       	brne	.-4      	; 0x3a2 <__SREG__+0x363>
 3a6:	00 c0       	rjmp	.+0      	; 0x3a8 <__SREG__+0x369>
 3a8:	ef ef       	ldi	r30, 0xFF	; 255
 3aa:	ff e3       	ldi	r31, 0x3F	; 63
 3ac:	31 97       	sbiw	r30, 0x01	; 1
 3ae:	f1 f7       	brne	.-4      	; 0x3ac <__SREG__+0x36d>
 3b0:	00 c0       	rjmp	.+0      	; 0x3b2 <__SREG__+0x373>
 3b2:	ef ef       	ldi	r30, 0xFF	; 255
 3b4:	ff e3       	ldi	r31, 0x3F	; 63
 3b6:	31 97       	sbiw	r30, 0x01	; 1
 3b8:	f1 f7       	brne	.-4      	; 0x3b6 <__SREG__+0x377>
 3ba:	00 c0       	rjmp	.+0      	; 0x3bc <__SREG__+0x37d>
 3bc:	ef ef       	ldi	r30, 0xFF	; 255
 3be:	ff e3       	ldi	r31, 0x3F	; 63
 3c0:	31 97       	sbiw	r30, 0x01	; 1
 3c2:	f1 f7       	brne	.-4      	; 0x3c0 <__SREG__+0x381>
 3c4:	00 c0       	rjmp	.+0      	; 0x3c6 <__SREG__+0x387>
 3c6:	ef ef       	ldi	r30, 0xFF	; 255
 3c8:	ff e3       	ldi	r31, 0x3F	; 63
 3ca:	31 97       	sbiw	r30, 0x01	; 1
 3cc:	f1 f7       	brne	.-4      	; 0x3ca <__SREG__+0x38b>
 3ce:	00 c0       	rjmp	.+0      	; 0x3d0 <__SREG__+0x391>
 3d0:	ef ef       	ldi	r30, 0xFF	; 255
 3d2:	ff e3       	ldi	r31, 0x3F	; 63
 3d4:	31 97       	sbiw	r30, 0x01	; 1
 3d6:	f1 f7       	brne	.-4      	; 0x3d4 <__SREG__+0x395>
 3d8:	00 c0       	rjmp	.+0      	; 0x3da <__SREG__+0x39b>
 3da:	ef ef       	ldi	r30, 0xFF	; 255
 3dc:	ff e3       	ldi	r31, 0x3F	; 63
 3de:	31 97       	sbiw	r30, 0x01	; 1
 3e0:	f1 f7       	brne	.-4      	; 0x3de <__SREG__+0x39f>
 3e2:	00 c0       	rjmp	.+0      	; 0x3e4 <__SREG__+0x3a5>
 3e4:	ef ef       	ldi	r30, 0xFF	; 255
 3e6:	ff e3       	ldi	r31, 0x3F	; 63
 3e8:	31 97       	sbiw	r30, 0x01	; 1
 3ea:	f1 f7       	brne	.-4      	; 0x3e8 <__SREG__+0x3a9>
 3ec:	00 c0       	rjmp	.+0      	; 0x3ee <__SREG__+0x3af>
 3ee:	ef ef       	ldi	r30, 0xFF	; 255
 3f0:	ff e3       	ldi	r31, 0x3F	; 63
 3f2:	31 97       	sbiw	r30, 0x01	; 1
 3f4:	f1 f7       	brne	.-4      	; 0x3f2 <__SREG__+0x3b3>
 3f6:	00 c0       	rjmp	.+0      	; 0x3f8 <__SREG__+0x3b9>
 3f8:	ef ef       	ldi	r30, 0xFF	; 255
 3fa:	ff e3       	ldi	r31, 0x3F	; 63
 3fc:	31 97       	sbiw	r30, 0x01	; 1
 3fe:	f1 f7       	brne	.-4      	; 0x3fc <__SREG__+0x3bd>
 400:	00 c0       	rjmp	.+0      	; 0x402 <__SREG__+0x3c3>
 402:	ef ef       	ldi	r30, 0xFF	; 255
 404:	ff e3       	ldi	r31, 0x3F	; 63
 406:	31 97       	sbiw	r30, 0x01	; 1
 408:	f1 f7       	brne	.-4      	; 0x406 <__SREG__+0x3c7>
 40a:	00 c0       	rjmp	.+0      	; 0x40c <__SREG__+0x3cd>
 40c:	ef ef       	ldi	r30, 0xFF	; 255
 40e:	ff e3       	ldi	r31, 0x3F	; 63
 410:	31 97       	sbiw	r30, 0x01	; 1
 412:	f1 f7       	brne	.-4      	; 0x410 <__SREG__+0x3d1>
 414:	00 c0       	rjmp	.+0      	; 0x416 <__SREG__+0x3d7>
 416:	ef ef       	ldi	r30, 0xFF	; 255
 418:	ff e3       	ldi	r31, 0x3F	; 63
 41a:	31 97       	sbiw	r30, 0x01	; 1
 41c:	f1 f7       	brne	.-4      	; 0x41a <__SREG__+0x3db>
 41e:	00 c0       	rjmp	.+0      	; 0x420 <__SREG__+0x3e1>
 420:	ef ef       	ldi	r30, 0xFF	; 255
 422:	ff e3       	ldi	r31, 0x3F	; 63
 424:	31 97       	sbiw	r30, 0x01	; 1
 426:	f1 f7       	brne	.-4      	; 0x424 <__SREG__+0x3e5>
 428:	00 c0       	rjmp	.+0      	; 0x42a <__SREG__+0x3eb>
 42a:	ef ef       	ldi	r30, 0xFF	; 255
 42c:	ff e3       	ldi	r31, 0x3F	; 63
 42e:	31 97       	sbiw	r30, 0x01	; 1
 430:	f1 f7       	brne	.-4      	; 0x42e <__SREG__+0x3ef>
 432:	00 c0       	rjmp	.+0      	; 0x434 <__SREG__+0x3f5>
 434:	ef ef       	ldi	r30, 0xFF	; 255
 436:	ff e3       	ldi	r31, 0x3F	; 63
 438:	31 97       	sbiw	r30, 0x01	; 1
 43a:	f1 f7       	brne	.-4      	; 0x438 <__SREG__+0x3f9>
 43c:	00 c0       	rjmp	.+0      	; 0x43e <__SREG__+0x3ff>
 43e:	ef ef       	ldi	r30, 0xFF	; 255
 440:	ff e3       	ldi	r31, 0x3F	; 63
 442:	31 97       	sbiw	r30, 0x01	; 1
 444:	f1 f7       	brne	.-4      	; 0x442 <__SREG__+0x403>
 446:	00 c0       	rjmp	.+0      	; 0x448 <__SREG__+0x409>
 448:	ef ef       	ldi	r30, 0xFF	; 255
 44a:	ff e3       	ldi	r31, 0x3F	; 63
 44c:	31 97       	sbiw	r30, 0x01	; 1
 44e:	f1 f7       	brne	.-4      	; 0x44c <__SREG__+0x40d>
 450:	00 c0       	rjmp	.+0      	; 0x452 <__SREG__+0x413>
 452:	ef ef       	ldi	r30, 0xFF	; 255
 454:	ff e3       	ldi	r31, 0x3F	; 63
 456:	31 97       	sbiw	r30, 0x01	; 1
 458:	f1 f7       	brne	.-4      	; 0x456 <__SREG__+0x417>
 45a:	00 c0       	rjmp	.+0      	; 0x45c <__SREG__+0x41d>
 45c:	ef ef       	ldi	r30, 0xFF	; 255
 45e:	ff e3       	ldi	r31, 0x3F	; 63
 460:	31 97       	sbiw	r30, 0x01	; 1
 462:	f1 f7       	brne	.-4      	; 0x460 <__stack+0x1>
 464:	00 c0       	rjmp	.+0      	; 0x466 <__stack+0x7>
 466:	ef ef       	ldi	r30, 0xFF	; 255
 468:	ff e3       	ldi	r31, 0x3F	; 63
 46a:	31 97       	sbiw	r30, 0x01	; 1
 46c:	f1 f7       	brne	.-4      	; 0x46a <__stack+0xb>
 46e:	00 c0       	rjmp	.+0      	; 0x470 <__stack+0x11>
 470:	ef ef       	ldi	r30, 0xFF	; 255
 472:	ff e3       	ldi	r31, 0x3F	; 63
 474:	31 97       	sbiw	r30, 0x01	; 1
 476:	f1 f7       	brne	.-4      	; 0x474 <__stack+0x15>
 478:	00 c0       	rjmp	.+0      	; 0x47a <__stack+0x1b>
 47a:	ef ef       	ldi	r30, 0xFF	; 255
 47c:	ff e3       	ldi	r31, 0x3F	; 63
 47e:	31 97       	sbiw	r30, 0x01	; 1
 480:	f1 f7       	brne	.-4      	; 0x47e <__stack+0x1f>
 482:	00 c0       	rjmp	.+0      	; 0x484 <__stack+0x25>
 484:	ef ef       	ldi	r30, 0xFF	; 255
 486:	ff e3       	ldi	r31, 0x3F	; 63
 488:	31 97       	sbiw	r30, 0x01	; 1
 48a:	f1 f7       	brne	.-4      	; 0x488 <__stack+0x29>
 48c:	00 c0       	rjmp	.+0      	; 0x48e <__stack+0x2f>
 48e:	ef ef       	ldi	r30, 0xFF	; 255
 490:	ff e3       	ldi	r31, 0x3F	; 63
 492:	31 97       	sbiw	r30, 0x01	; 1
 494:	f1 f7       	brne	.-4      	; 0x492 <__stack+0x33>
 496:	00 c0       	rjmp	.+0      	; 0x498 <__stack+0x39>
 498:	ef ef       	ldi	r30, 0xFF	; 255
 49a:	ff e3       	ldi	r31, 0x3F	; 63
 49c:	31 97       	sbiw	r30, 0x01	; 1
 49e:	f1 f7       	brne	.-4      	; 0x49c <__stack+0x3d>
 4a0:	00 c0       	rjmp	.+0      	; 0x4a2 <__stack+0x43>
 4a2:	ef ef       	ldi	r30, 0xFF	; 255
 4a4:	ff e3       	ldi	r31, 0x3F	; 63
 4a6:	31 97       	sbiw	r30, 0x01	; 1
 4a8:	f1 f7       	brne	.-4      	; 0x4a6 <__stack+0x47>
 4aa:	00 c0       	rjmp	.+0      	; 0x4ac <__stack+0x4d>
 4ac:	ef ef       	ldi	r30, 0xFF	; 255
 4ae:	ff e3       	ldi	r31, 0x3F	; 63
 4b0:	31 97       	sbiw	r30, 0x01	; 1
 4b2:	f1 f7       	brne	.-4      	; 0x4b0 <__stack+0x51>
 4b4:	00 c0       	rjmp	.+0      	; 0x4b6 <__stack+0x57>
 4b6:	ef ef       	ldi	r30, 0xFF	; 255
 4b8:	ff e3       	ldi	r31, 0x3F	; 63
 4ba:	31 97       	sbiw	r30, 0x01	; 1
 4bc:	f1 f7       	brne	.-4      	; 0x4ba <__stack+0x5b>
 4be:	00 c0       	rjmp	.+0      	; 0x4c0 <__stack+0x61>
 4c0:	ef ef       	ldi	r30, 0xFF	; 255
 4c2:	ff e3       	ldi	r31, 0x3F	; 63
 4c4:	31 97       	sbiw	r30, 0x01	; 1
 4c6:	f1 f7       	brne	.-4      	; 0x4c4 <__stack+0x65>
 4c8:	00 c0       	rjmp	.+0      	; 0x4ca <__stack+0x6b>
 4ca:	ef ef       	ldi	r30, 0xFF	; 255
 4cc:	ff e3       	ldi	r31, 0x3F	; 63
 4ce:	31 97       	sbiw	r30, 0x01	; 1
 4d0:	f1 f7       	brne	.-4      	; 0x4ce <__stack+0x6f>
 4d2:	00 c0       	rjmp	.+0      	; 0x4d4 <__stack+0x75>
 4d4:	ef ef       	ldi	r30, 0xFF	; 255
 4d6:	ff e3       	ldi	r31, 0x3F	; 63
 4d8:	31 97       	sbiw	r30, 0x01	; 1
 4da:	f1 f7       	brne	.-4      	; 0x4d8 <__stack+0x79>
 4dc:	00 c0       	rjmp	.+0      	; 0x4de <__stack+0x7f>
 4de:	ef ef       	ldi	r30, 0xFF	; 255
 4e0:	ff e3       	ldi	r31, 0x3F	; 63
 4e2:	31 97       	sbiw	r30, 0x01	; 1
 4e4:	f1 f7       	brne	.-4      	; 0x4e2 <__stack+0x83>
 4e6:	00 c0       	rjmp	.+0      	; 0x4e8 <__stack+0x89>
 4e8:	ef ef       	ldi	r30, 0xFF	; 255
 4ea:	ff e3       	ldi	r31, 0x3F	; 63
 4ec:	31 97       	sbiw	r30, 0x01	; 1
 4ee:	f1 f7       	brne	.-4      	; 0x4ec <__stack+0x8d>
 4f0:	00 c0       	rjmp	.+0      	; 0x4f2 <__stack+0x93>
 4f2:	ef ef       	ldi	r30, 0xFF	; 255
 4f4:	ff e3       	ldi	r31, 0x3F	; 63
 4f6:	31 97       	sbiw	r30, 0x01	; 1
 4f8:	f1 f7       	brne	.-4      	; 0x4f6 <__stack+0x97>
 4fa:	00 c0       	rjmp	.+0      	; 0x4fc <__stack+0x9d>
 4fc:	ef ef       	ldi	r30, 0xFF	; 255
 4fe:	ff e3       	ldi	r31, 0x3F	; 63
 500:	31 97       	sbiw	r30, 0x01	; 1
 502:	f1 f7       	brne	.-4      	; 0x500 <__stack+0xa1>
 504:	00 c0       	rjmp	.+0      	; 0x506 <__stack+0xa7>
 506:	ef ef       	ldi	r30, 0xFF	; 255
 508:	ff e3       	ldi	r31, 0x3F	; 63
 50a:	31 97       	sbiw	r30, 0x01	; 1
 50c:	f1 f7       	brne	.-4      	; 0x50a <__stack+0xab>
 50e:	00 c0       	rjmp	.+0      	; 0x510 <__stack+0xb1>
 510:	ef ef       	ldi	r30, 0xFF	; 255
 512:	ff e3       	ldi	r31, 0x3F	; 63
 514:	31 97       	sbiw	r30, 0x01	; 1
 516:	f1 f7       	brne	.-4      	; 0x514 <__stack+0xb5>
 518:	00 c0       	rjmp	.+0      	; 0x51a <__stack+0xbb>
 51a:	ef ef       	ldi	r30, 0xFF	; 255
 51c:	ff e3       	ldi	r31, 0x3F	; 63
 51e:	31 97       	sbiw	r30, 0x01	; 1
 520:	f1 f7       	brne	.-4      	; 0x51e <__stack+0xbf>
 522:	00 c0       	rjmp	.+0      	; 0x524 <__stack+0xc5>
 524:	ef ef       	ldi	r30, 0xFF	; 255
 526:	ff e3       	ldi	r31, 0x3F	; 63
 528:	31 97       	sbiw	r30, 0x01	; 1
 52a:	f1 f7       	brne	.-4      	; 0x528 <__stack+0xc9>
 52c:	00 c0       	rjmp	.+0      	; 0x52e <__stack+0xcf>
 52e:	ef ef       	ldi	r30, 0xFF	; 255
 530:	ff e3       	ldi	r31, 0x3F	; 63
 532:	31 97       	sbiw	r30, 0x01	; 1
 534:	f1 f7       	brne	.-4      	; 0x532 <__stack+0xd3>
 536:	00 c0       	rjmp	.+0      	; 0x538 <__stack+0xd9>
 538:	ef ef       	ldi	r30, 0xFF	; 255
 53a:	ff e3       	ldi	r31, 0x3F	; 63
 53c:	31 97       	sbiw	r30, 0x01	; 1
 53e:	f1 f7       	brne	.-4      	; 0x53c <__stack+0xdd>
 540:	00 c0       	rjmp	.+0      	; 0x542 <__stack+0xe3>
 542:	ef ef       	ldi	r30, 0xFF	; 255
 544:	ff e3       	ldi	r31, 0x3F	; 63
 546:	31 97       	sbiw	r30, 0x01	; 1
 548:	f1 f7       	brne	.-4      	; 0x546 <__stack+0xe7>
 54a:	00 c0       	rjmp	.+0      	; 0x54c <__stack+0xed>
 54c:	ef ef       	ldi	r30, 0xFF	; 255
 54e:	ff e3       	ldi	r31, 0x3F	; 63
 550:	31 97       	sbiw	r30, 0x01	; 1
 552:	f1 f7       	brne	.-4      	; 0x550 <__stack+0xf1>
 554:	00 c0       	rjmp	.+0      	; 0x556 <__stack+0xf7>
 556:	ef ef       	ldi	r30, 0xFF	; 255
 558:	ff e3       	ldi	r31, 0x3F	; 63
 55a:	31 97       	sbiw	r30, 0x01	; 1
 55c:	f1 f7       	brne	.-4      	; 0x55a <__stack+0xfb>
 55e:	00 c0       	rjmp	.+0      	; 0x560 <__stack+0x101>
 560:	ef ef       	ldi	r30, 0xFF	; 255
 562:	ff e3       	ldi	r31, 0x3F	; 63
 564:	31 97       	sbiw	r30, 0x01	; 1
 566:	f1 f7       	brne	.-4      	; 0x564 <__stack+0x105>
 568:	00 c0       	rjmp	.+0      	; 0x56a <__stack+0x10b>
 56a:	ef ef       	ldi	r30, 0xFF	; 255
 56c:	ff e3       	ldi	r31, 0x3F	; 63
 56e:	31 97       	sbiw	r30, 0x01	; 1
 570:	f1 f7       	brne	.-4      	; 0x56e <__stack+0x10f>
 572:	00 c0       	rjmp	.+0      	; 0x574 <__stack+0x115>
 574:	ef ef       	ldi	r30, 0xFF	; 255
 576:	ff e3       	ldi	r31, 0x3F	; 63
 578:	31 97       	sbiw	r30, 0x01	; 1
 57a:	f1 f7       	brne	.-4      	; 0x578 <__stack+0x119>
 57c:	00 c0       	rjmp	.+0      	; 0x57e <__stack+0x11f>
 57e:	ef ef       	ldi	r30, 0xFF	; 255
 580:	ff e3       	ldi	r31, 0x3F	; 63
 582:	31 97       	sbiw	r30, 0x01	; 1
 584:	f1 f7       	brne	.-4      	; 0x582 <__stack+0x123>
 586:	00 c0       	rjmp	.+0      	; 0x588 <__stack+0x129>
 588:	ef ef       	ldi	r30, 0xFF	; 255
 58a:	ff e3       	ldi	r31, 0x3F	; 63
 58c:	31 97       	sbiw	r30, 0x01	; 1
 58e:	f1 f7       	brne	.-4      	; 0x58c <__stack+0x12d>
 590:	00 c0       	rjmp	.+0      	; 0x592 <__stack+0x133>
 592:	ef ef       	ldi	r30, 0xFF	; 255
 594:	ff e3       	ldi	r31, 0x3F	; 63
 596:	31 97       	sbiw	r30, 0x01	; 1
 598:	f1 f7       	brne	.-4      	; 0x596 <__stack+0x137>
 59a:	00 c0       	rjmp	.+0      	; 0x59c <__stack+0x13d>
 59c:	ef ef       	ldi	r30, 0xFF	; 255
 59e:	ff e3       	ldi	r31, 0x3F	; 63
 5a0:	31 97       	sbiw	r30, 0x01	; 1
 5a2:	f1 f7       	brne	.-4      	; 0x5a0 <__stack+0x141>
 5a4:	00 c0       	rjmp	.+0      	; 0x5a6 <__stack+0x147>
 5a6:	ef ef       	ldi	r30, 0xFF	; 255
 5a8:	ff e3       	ldi	r31, 0x3F	; 63
 5aa:	31 97       	sbiw	r30, 0x01	; 1
 5ac:	f1 f7       	brne	.-4      	; 0x5aa <__stack+0x14b>
 5ae:	00 c0       	rjmp	.+0      	; 0x5b0 <__stack+0x151>
 5b0:	ef ef       	ldi	r30, 0xFF	; 255
 5b2:	ff e3       	ldi	r31, 0x3F	; 63
 5b4:	31 97       	sbiw	r30, 0x01	; 1
 5b6:	f1 f7       	brne	.-4      	; 0x5b4 <__stack+0x155>
 5b8:	00 c0       	rjmp	.+0      	; 0x5ba <__stack+0x15b>
 5ba:	ef ef       	ldi	r30, 0xFF	; 255
 5bc:	ff e3       	ldi	r31, 0x3F	; 63
 5be:	31 97       	sbiw	r30, 0x01	; 1
 5c0:	f1 f7       	brne	.-4      	; 0x5be <__stack+0x15f>
 5c2:	00 c0       	rjmp	.+0      	; 0x5c4 <__stack+0x165>
 5c4:	ef ef       	ldi	r30, 0xFF	; 255
 5c6:	ff e3       	ldi	r31, 0x3F	; 63
 5c8:	31 97       	sbiw	r30, 0x01	; 1
 5ca:	f1 f7       	brne	.-4      	; 0x5c8 <__stack+0x169>
 5cc:	00 c0       	rjmp	.+0      	; 0x5ce <__stack+0x16f>
 5ce:	ef ef       	ldi	r30, 0xFF	; 255
 5d0:	ff e3       	ldi	r31, 0x3F	; 63
 5d2:	31 97       	sbiw	r30, 0x01	; 1
 5d4:	f1 f7       	brne	.-4      	; 0x5d2 <__stack+0x173>
 5d6:	00 c0       	rjmp	.+0      	; 0x5d8 <__stack+0x179>
 5d8:	ef ef       	ldi	r30, 0xFF	; 255
 5da:	ff e3       	ldi	r31, 0x3F	; 63
 5dc:	31 97       	sbiw	r30, 0x01	; 1
 5de:	f1 f7       	brne	.-4      	; 0x5dc <__stack+0x17d>
 5e0:	00 c0       	rjmp	.+0      	; 0x5e2 <__stack+0x183>
 5e2:	ef ef       	ldi	r30, 0xFF	; 255
 5e4:	ff e3       	ldi	r31, 0x3F	; 63
 5e6:	31 97       	sbiw	r30, 0x01	; 1
 5e8:	f1 f7       	brne	.-4      	; 0x5e6 <__stack+0x187>
 5ea:	00 c0       	rjmp	.+0      	; 0x5ec <__stack+0x18d>
 5ec:	ef ef       	ldi	r30, 0xFF	; 255
 5ee:	ff e3       	ldi	r31, 0x3F	; 63
 5f0:	31 97       	sbiw	r30, 0x01	; 1
 5f2:	f1 f7       	brne	.-4      	; 0x5f0 <__stack+0x191>
 5f4:	00 c0       	rjmp	.+0      	; 0x5f6 <__stack+0x197>
 5f6:	ef ef       	ldi	r30, 0xFF	; 255
 5f8:	ff e3       	ldi	r31, 0x3F	; 63
 5fa:	31 97       	sbiw	r30, 0x01	; 1
 5fc:	f1 f7       	brne	.-4      	; 0x5fa <__stack+0x19b>
 5fe:	00 c0       	rjmp	.+0      	; 0x600 <__stack+0x1a1>
 600:	ef ef       	ldi	r30, 0xFF	; 255
 602:	ff e3       	ldi	r31, 0x3F	; 63
 604:	31 97       	sbiw	r30, 0x01	; 1
 606:	f1 f7       	brne	.-4      	; 0x604 <__stack+0x1a5>
 608:	00 c0       	rjmp	.+0      	; 0x60a <__stack+0x1ab>
 60a:	ef ef       	ldi	r30, 0xFF	; 255
 60c:	ff e3       	ldi	r31, 0x3F	; 63
 60e:	31 97       	sbiw	r30, 0x01	; 1
 610:	f1 f7       	brne	.-4      	; 0x60e <__stack+0x1af>
 612:	00 c0       	rjmp	.+0      	; 0x614 <__stack+0x1b5>
 614:	ef ef       	ldi	r30, 0xFF	; 255
 616:	ff e3       	ldi	r31, 0x3F	; 63
 618:	31 97       	sbiw	r30, 0x01	; 1
 61a:	f1 f7       	brne	.-4      	; 0x618 <__stack+0x1b9>
 61c:	00 c0       	rjmp	.+0      	; 0x61e <__stack+0x1bf>
 61e:	ef ef       	ldi	r30, 0xFF	; 255
 620:	ff e3       	ldi	r31, 0x3F	; 63
 622:	31 97       	sbiw	r30, 0x01	; 1
 624:	f1 f7       	brne	.-4      	; 0x622 <__stack+0x1c3>
 626:	00 c0       	rjmp	.+0      	; 0x628 <__stack+0x1c9>
 628:	ef ef       	ldi	r30, 0xFF	; 255
 62a:	ff e3       	ldi	r31, 0x3F	; 63
 62c:	31 97       	sbiw	r30, 0x01	; 1
 62e:	f1 f7       	brne	.-4      	; 0x62c <__stack+0x1cd>
 630:	00 c0       	rjmp	.+0      	; 0x632 <__stack+0x1d3>
 632:	ef ef       	ldi	r30, 0xFF	; 255
 634:	ff e3       	ldi	r31, 0x3F	; 63
 636:	31 97       	sbiw	r30, 0x01	; 1
 638:	f1 f7       	brne	.-4      	; 0x636 <__stack+0x1d7>
 63a:	00 c0       	rjmp	.+0      	; 0x63c <__stack+0x1dd>
 63c:	ef ef       	ldi	r30, 0xFF	; 255
 63e:	ff e3       	ldi	r31, 0x3F	; 63
 640:	31 97       	sbiw	r30, 0x01	; 1
 642:	f1 f7       	brne	.-4      	; 0x640 <__stack+0x1e1>
 644:	00 c0       	rjmp	.+0      	; 0x646 <__stack+0x1e7>
 646:	ef ef       	ldi	r30, 0xFF	; 255
 648:	ff e3       	ldi	r31, 0x3F	; 63
 64a:	31 97       	sbiw	r30, 0x01	; 1
 64c:	f1 f7       	brne	.-4      	; 0x64a <__stack+0x1eb>
 64e:	00 c0       	rjmp	.+0      	; 0x650 <__stack+0x1f1>
 650:	ef ef       	ldi	r30, 0xFF	; 255
 652:	ff e3       	ldi	r31, 0x3F	; 63
 654:	31 97       	sbiw	r30, 0x01	; 1
 656:	f1 f7       	brne	.-4      	; 0x654 <__stack+0x1f5>
 658:	00 c0       	rjmp	.+0      	; 0x65a <__stack+0x1fb>
 65a:	ef ef       	ldi	r30, 0xFF	; 255
 65c:	ff e3       	ldi	r31, 0x3F	; 63
 65e:	31 97       	sbiw	r30, 0x01	; 1
 660:	f1 f7       	brne	.-4      	; 0x65e <__stack+0x1ff>
 662:	00 c0       	rjmp	.+0      	; 0x664 <__stack+0x205>
 664:	ef ef       	ldi	r30, 0xFF	; 255
 666:	ff e3       	ldi	r31, 0x3F	; 63
 668:	31 97       	sbiw	r30, 0x01	; 1
 66a:	f1 f7       	brne	.-4      	; 0x668 <__stack+0x209>
 66c:	00 c0       	rjmp	.+0      	; 0x66e <__stack+0x20f>
 66e:	ef ef       	ldi	r30, 0xFF	; 255
 670:	ff e3       	ldi	r31, 0x3F	; 63
 672:	31 97       	sbiw	r30, 0x01	; 1
 674:	f1 f7       	brne	.-4      	; 0x672 <__stack+0x213>
 676:	00 c0       	rjmp	.+0      	; 0x678 <__stack+0x219>
 678:	ef ef       	ldi	r30, 0xFF	; 255
 67a:	ff e3       	ldi	r31, 0x3F	; 63
 67c:	31 97       	sbiw	r30, 0x01	; 1
 67e:	f1 f7       	brne	.-4      	; 0x67c <__stack+0x21d>
 680:	00 c0       	rjmp	.+0      	; 0x682 <__stack+0x223>
 682:	ef ef       	ldi	r30, 0xFF	; 255
 684:	ff e3       	ldi	r31, 0x3F	; 63
 686:	31 97       	sbiw	r30, 0x01	; 1
 688:	f1 f7       	brne	.-4      	; 0x686 <__stack+0x227>
 68a:	00 c0       	rjmp	.+0      	; 0x68c <__stack+0x22d>
 68c:	ef ef       	ldi	r30, 0xFF	; 255
 68e:	ff e3       	ldi	r31, 0x3F	; 63
 690:	31 97       	sbiw	r30, 0x01	; 1
 692:	f1 f7       	brne	.-4      	; 0x690 <__stack+0x231>
 694:	00 c0       	rjmp	.+0      	; 0x696 <__stack+0x237>
 696:	ef ef       	ldi	r30, 0xFF	; 255
 698:	ff e3       	ldi	r31, 0x3F	; 63
 69a:	31 97       	sbiw	r30, 0x01	; 1
 69c:	f1 f7       	brne	.-4      	; 0x69a <__stack+0x23b>
 69e:	00 c0       	rjmp	.+0      	; 0x6a0 <__stack+0x241>
 6a0:	ef ef       	ldi	r30, 0xFF	; 255
 6a2:	ff e3       	ldi	r31, 0x3F	; 63
 6a4:	31 97       	sbiw	r30, 0x01	; 1
 6a6:	f1 f7       	brne	.-4      	; 0x6a4 <__stack+0x245>
 6a8:	00 c0       	rjmp	.+0      	; 0x6aa <__stack+0x24b>
 6aa:	ef ef       	ldi	r30, 0xFF	; 255
 6ac:	ff e3       	ldi	r31, 0x3F	; 63
 6ae:	31 97       	sbiw	r30, 0x01	; 1
 6b0:	f1 f7       	brne	.-4      	; 0x6ae <__stack+0x24f>
 6b2:	00 c0       	rjmp	.+0      	; 0x6b4 <__stack+0x255>
 6b4:	ef ef       	ldi	r30, 0xFF	; 255
 6b6:	ff e3       	ldi	r31, 0x3F	; 63
 6b8:	31 97       	sbiw	r30, 0x01	; 1
 6ba:	f1 f7       	brne	.-4      	; 0x6b8 <__stack+0x259>
 6bc:	00 c0       	rjmp	.+0      	; 0x6be <__stack+0x25f>
 6be:	ef ef       	ldi	r30, 0xFF	; 255
 6c0:	ff e3       	ldi	r31, 0x3F	; 63
 6c2:	31 97       	sbiw	r30, 0x01	; 1
 6c4:	f1 f7       	brne	.-4      	; 0x6c2 <__stack+0x263>
 6c6:	00 c0       	rjmp	.+0      	; 0x6c8 <__stack+0x269>
 6c8:	ef ef       	ldi	r30, 0xFF	; 255
 6ca:	ff e3       	ldi	r31, 0x3F	; 63
 6cc:	31 97       	sbiw	r30, 0x01	; 1
 6ce:	f1 f7       	brne	.-4      	; 0x6cc <__stack+0x26d>
 6d0:	00 c0       	rjmp	.+0      	; 0x6d2 <__stack+0x273>
 6d2:	ef ef       	ldi	r30, 0xFF	; 255
 6d4:	ff e3       	ldi	r31, 0x3F	; 63
 6d6:	31 97       	sbiw	r30, 0x01	; 1
 6d8:	f1 f7       	brne	.-4      	; 0x6d6 <__stack+0x277>
 6da:	00 c0       	rjmp	.+0      	; 0x6dc <__stack+0x27d>
 6dc:	ef ef       	ldi	r30, 0xFF	; 255
 6de:	ff e3       	ldi	r31, 0x3F	; 63
 6e0:	31 97       	sbiw	r30, 0x01	; 1
 6e2:	f1 f7       	brne	.-4      	; 0x6e0 <__stack+0x281>
 6e4:	00 c0       	rjmp	.+0      	; 0x6e6 <__stack+0x287>
 6e6:	ef ef       	ldi	r30, 0xFF	; 255
 6e8:	ff e3       	ldi	r31, 0x3F	; 63
 6ea:	31 97       	sbiw	r30, 0x01	; 1
 6ec:	f1 f7       	brne	.-4      	; 0x6ea <__stack+0x28b>
 6ee:	00 c0       	rjmp	.+0      	; 0x6f0 <__stack+0x291>
 6f0:	ef ef       	ldi	r30, 0xFF	; 255
 6f2:	ff e3       	ldi	r31, 0x3F	; 63
 6f4:	31 97       	sbiw	r30, 0x01	; 1
 6f6:	f1 f7       	brne	.-4      	; 0x6f4 <__stack+0x295>
 6f8:	00 c0       	rjmp	.+0      	; 0x6fa <__stack+0x29b>
 6fa:	ef ef       	ldi	r30, 0xFF	; 255
 6fc:	ff e3       	ldi	r31, 0x3F	; 63
 6fe:	31 97       	sbiw	r30, 0x01	; 1
 700:	f1 f7       	brne	.-4      	; 0x6fe <__stack+0x29f>
 702:	00 c0       	rjmp	.+0      	; 0x704 <__stack+0x2a5>
 704:	ef ef       	ldi	r30, 0xFF	; 255
 706:	ff e3       	ldi	r31, 0x3F	; 63
 708:	31 97       	sbiw	r30, 0x01	; 1
 70a:	f1 f7       	brne	.-4      	; 0x708 <__stack+0x2a9>
 70c:	00 c0       	rjmp	.+0      	; 0x70e <__stack+0x2af>
 70e:	ef ef       	ldi	r30, 0xFF	; 255
 710:	ff e3       	ldi	r31, 0x3F	; 63
 712:	31 97       	sbiw	r30, 0x01	; 1
 714:	f1 f7       	brne	.-4      	; 0x712 <__stack+0x2b3>
 716:	00 c0       	rjmp	.+0      	; 0x718 <__stack+0x2b9>
 718:	ef ef       	ldi	r30, 0xFF	; 255
 71a:	ff e3       	ldi	r31, 0x3F	; 63
 71c:	31 97       	sbiw	r30, 0x01	; 1
 71e:	f1 f7       	brne	.-4      	; 0x71c <__stack+0x2bd>
 720:	00 c0       	rjmp	.+0      	; 0x722 <__stack+0x2c3>
 722:	ef ef       	ldi	r30, 0xFF	; 255
 724:	ff e3       	ldi	r31, 0x3F	; 63
 726:	31 97       	sbiw	r30, 0x01	; 1
 728:	f1 f7       	brne	.-4      	; 0x726 <__stack+0x2c7>
 72a:	00 c0       	rjmp	.+0      	; 0x72c <__stack+0x2cd>
 72c:	ef ef       	ldi	r30, 0xFF	; 255
 72e:	ff e3       	ldi	r31, 0x3F	; 63
 730:	31 97       	sbiw	r30, 0x01	; 1
 732:	f1 f7       	brne	.-4      	; 0x730 <__stack+0x2d1>
 734:	00 c0       	rjmp	.+0      	; 0x736 <__stack+0x2d7>
 736:	ef ef       	ldi	r30, 0xFF	; 255
 738:	ff e3       	ldi	r31, 0x3F	; 63
 73a:	31 97       	sbiw	r30, 0x01	; 1
 73c:	f1 f7       	brne	.-4      	; 0x73a <__stack+0x2db>
 73e:	00 c0       	rjmp	.+0      	; 0x740 <__stack+0x2e1>
 740:	ef ef       	ldi	r30, 0xFF	; 255
 742:	ff e3       	ldi	r31, 0x3F	; 63
 744:	31 97       	sbiw	r30, 0x01	; 1
 746:	f1 f7       	brne	.-4      	; 0x744 <__stack+0x2e5>
 748:	00 c0       	rjmp	.+0      	; 0x74a <__stack+0x2eb>
 74a:	ef ef       	ldi	r30, 0xFF	; 255
 74c:	ff e3       	ldi	r31, 0x3F	; 63
 74e:	31 97       	sbiw	r30, 0x01	; 1
 750:	f1 f7       	brne	.-4      	; 0x74e <__stack+0x2ef>
 752:	00 c0       	rjmp	.+0      	; 0x754 <__stack+0x2f5>
 754:	ef ef       	ldi	r30, 0xFF	; 255
 756:	ff e3       	ldi	r31, 0x3F	; 63
 758:	31 97       	sbiw	r30, 0x01	; 1
 75a:	f1 f7       	brne	.-4      	; 0x758 <__stack+0x2f9>
 75c:	00 c0       	rjmp	.+0      	; 0x75e <__stack+0x2ff>
 75e:	ef ef       	ldi	r30, 0xFF	; 255
 760:	ff e3       	ldi	r31, 0x3F	; 63
 762:	31 97       	sbiw	r30, 0x01	; 1
 764:	f1 f7       	brne	.-4      	; 0x762 <__stack+0x303>
 766:	00 c0       	rjmp	.+0      	; 0x768 <__stack+0x309>
 768:	ef ef       	ldi	r30, 0xFF	; 255
 76a:	ff e3       	ldi	r31, 0x3F	; 63
 76c:	31 97       	sbiw	r30, 0x01	; 1
 76e:	f1 f7       	brne	.-4      	; 0x76c <__stack+0x30d>
 770:	00 c0       	rjmp	.+0      	; 0x772 <__stack+0x313>
 772:	ef ef       	ldi	r30, 0xFF	; 255
 774:	ff e3       	ldi	r31, 0x3F	; 63
 776:	31 97       	sbiw	r30, 0x01	; 1
 778:	f1 f7       	brne	.-4      	; 0x776 <__stack+0x317>
 77a:	00 c0       	rjmp	.+0      	; 0x77c <__stack+0x31d>
 77c:	ef ef       	ldi	r30, 0xFF	; 255
 77e:	ff e3       	ldi	r31, 0x3F	; 63
 780:	31 97       	sbiw	r30, 0x01	; 1
 782:	f1 f7       	brne	.-4      	; 0x780 <__stack+0x321>
 784:	00 c0       	rjmp	.+0      	; 0x786 <__stack+0x327>
 786:	ef ef       	ldi	r30, 0xFF	; 255
 788:	ff e3       	ldi	r31, 0x3F	; 63
 78a:	31 97       	sbiw	r30, 0x01	; 1
 78c:	f1 f7       	brne	.-4      	; 0x78a <__stack+0x32b>
 78e:	00 c0       	rjmp	.+0      	; 0x790 <__stack+0x331>
 790:	ef ef       	ldi	r30, 0xFF	; 255
 792:	ff e3       	ldi	r31, 0x3F	; 63
 794:	31 97       	sbiw	r30, 0x01	; 1
 796:	f1 f7       	brne	.-4      	; 0x794 <__stack+0x335>
 798:	00 c0       	rjmp	.+0      	; 0x79a <__stack+0x33b>
 79a:	ef ef       	ldi	r30, 0xFF	; 255
 79c:	ff e3       	ldi	r31, 0x3F	; 63
 79e:	31 97       	sbiw	r30, 0x01	; 1
 7a0:	f1 f7       	brne	.-4      	; 0x79e <__stack+0x33f>
 7a2:	00 c0       	rjmp	.+0      	; 0x7a4 <__stack+0x345>
 7a4:	ef ef       	ldi	r30, 0xFF	; 255
 7a6:	ff e3       	ldi	r31, 0x3F	; 63
 7a8:	31 97       	sbiw	r30, 0x01	; 1
 7aa:	f1 f7       	brne	.-4      	; 0x7a8 <__stack+0x349>
 7ac:	00 c0       	rjmp	.+0      	; 0x7ae <__stack+0x34f>
 7ae:	ef ef       	ldi	r30, 0xFF	; 255
 7b0:	ff e3       	ldi	r31, 0x3F	; 63
 7b2:	31 97       	sbiw	r30, 0x01	; 1
 7b4:	f1 f7       	brne	.-4      	; 0x7b2 <__stack+0x353>
 7b6:	00 c0       	rjmp	.+0      	; 0x7b8 <__stack+0x359>
 7b8:	ef ef       	ldi	r30, 0xFF	; 255
 7ba:	ff e3       	ldi	r31, 0x3F	; 63
 7bc:	31 97       	sbiw	r30, 0x01	; 1
 7be:	f1 f7       	brne	.-4      	; 0x7bc <__stack+0x35d>
 7c0:	00 c0       	rjmp	.+0      	; 0x7c2 <__stack+0x363>
 7c2:	ef ef       	ldi	r30, 0xFF	; 255
 7c4:	ff e3       	ldi	r31, 0x3F	; 63
 7c6:	31 97       	sbiw	r30, 0x01	; 1
 7c8:	f1 f7       	brne	.-4      	; 0x7c6 <__stack+0x367>
 7ca:	00 c0       	rjmp	.+0      	; 0x7cc <__stack+0x36d>
 7cc:	ef ef       	ldi	r30, 0xFF	; 255
 7ce:	ff e3       	ldi	r31, 0x3F	; 63
 7d0:	31 97       	sbiw	r30, 0x01	; 1
 7d2:	f1 f7       	brne	.-4      	; 0x7d0 <__stack+0x371>
 7d4:	00 c0       	rjmp	.+0      	; 0x7d6 <__stack+0x377>
 7d6:	ef ef       	ldi	r30, 0xFF	; 255
 7d8:	ff e3       	ldi	r31, 0x3F	; 63
 7da:	31 97       	sbiw	r30, 0x01	; 1
 7dc:	f1 f7       	brne	.-4      	; 0x7da <__stack+0x37b>
 7de:	00 c0       	rjmp	.+0      	; 0x7e0 <__stack+0x381>
 7e0:	ef ef       	ldi	r30, 0xFF	; 255
 7e2:	ff e3       	ldi	r31, 0x3F	; 63
 7e4:	31 97       	sbiw	r30, 0x01	; 1
 7e6:	f1 f7       	brne	.-4      	; 0x7e4 <__stack+0x385>
 7e8:	00 c0       	rjmp	.+0      	; 0x7ea <__stack+0x38b>
 7ea:	ef ef       	ldi	r30, 0xFF	; 255
 7ec:	ff e3       	ldi	r31, 0x3F	; 63
 7ee:	31 97       	sbiw	r30, 0x01	; 1
 7f0:	f1 f7       	brne	.-4      	; 0x7ee <__stack+0x38f>
 7f2:	00 c0       	rjmp	.+0      	; 0x7f4 <__stack+0x395>
 7f4:	ef ef       	ldi	r30, 0xFF	; 255
 7f6:	ff e3       	ldi	r31, 0x3F	; 63
 7f8:	31 97       	sbiw	r30, 0x01	; 1
 7fa:	f1 f7       	brne	.-4      	; 0x7f8 <__stack+0x399>
 7fc:	00 c0       	rjmp	.+0      	; 0x7fe <__stack+0x39f>
 7fe:	ef ef       	ldi	r30, 0xFF	; 255
 800:	ff e3       	ldi	r31, 0x3F	; 63
 802:	31 97       	sbiw	r30, 0x01	; 1
 804:	f1 f7       	brne	.-4      	; 0x802 <__stack+0x3a3>
 806:	00 c0       	rjmp	.+0      	; 0x808 <__stack+0x3a9>
 808:	ef ef       	ldi	r30, 0xFF	; 255
 80a:	ff e3       	ldi	r31, 0x3F	; 63
 80c:	31 97       	sbiw	r30, 0x01	; 1
 80e:	f1 f7       	brne	.-4      	; 0x80c <__stack+0x3ad>
 810:	00 c0       	rjmp	.+0      	; 0x812 <__stack+0x3b3>
 812:	ef ef       	ldi	r30, 0xFF	; 255
 814:	ff e3       	ldi	r31, 0x3F	; 63
 816:	31 97       	sbiw	r30, 0x01	; 1
 818:	f1 f7       	brne	.-4      	; 0x816 <__stack+0x3b7>
 81a:	00 c0       	rjmp	.+0      	; 0x81c <__stack+0x3bd>
 81c:	ef ef       	ldi	r30, 0xFF	; 255
 81e:	ff e3       	ldi	r31, 0x3F	; 63
 820:	31 97       	sbiw	r30, 0x01	; 1
 822:	f1 f7       	brne	.-4      	; 0x820 <__stack+0x3c1>
 824:	00 c0       	rjmp	.+0      	; 0x826 <__stack+0x3c7>
 826:	ef ef       	ldi	r30, 0xFF	; 255
 828:	ff e3       	ldi	r31, 0x3F	; 63
 82a:	31 97       	sbiw	r30, 0x01	; 1
 82c:	f1 f7       	brne	.-4      	; 0x82a <__stack+0x3cb>
 82e:	00 c0       	rjmp	.+0      	; 0x830 <__stack+0x3d1>
 830:	ef ef       	ldi	r30, 0xFF	; 255
 832:	ff e3       	ldi	r31, 0x3F	; 63
 834:	31 97       	sbiw	r30, 0x01	; 1
 836:	f1 f7       	brne	.-4      	; 0x834 <__stack+0x3d5>
 838:	00 c0       	rjmp	.+0      	; 0x83a <__stack+0x3db>
 83a:	ef ef       	ldi	r30, 0xFF	; 255
 83c:	ff e3       	ldi	r31, 0x3F	; 63
 83e:	31 97       	sbiw	r30, 0x01	; 1
 840:	f1 f7       	brne	.-4      	; 0x83e <__stack+0x3df>
 842:	00 c0       	rjmp	.+0      	; 0x844 <__stack+0x3e5>
 844:	ef ef       	ldi	r30, 0xFF	; 255
 846:	ff e3       	ldi	r31, 0x3F	; 63
 848:	31 97       	sbiw	r30, 0x01	; 1
 84a:	f1 f7       	brne	.-4      	; 0x848 <__stack+0x3e9>
 84c:	00 c0       	rjmp	.+0      	; 0x84e <__stack+0x3ef>
 84e:	ef ef       	ldi	r30, 0xFF	; 255
 850:	ff e3       	ldi	r31, 0x3F	; 63
 852:	31 97       	sbiw	r30, 0x01	; 1
 854:	f1 f7       	brne	.-4      	; 0x852 <__stack+0x3f3>
 856:	00 c0       	rjmp	.+0      	; 0x858 <__stack+0x3f9>
 858:	ef ef       	ldi	r30, 0xFF	; 255
 85a:	ff e3       	ldi	r31, 0x3F	; 63
 85c:	31 97       	sbiw	r30, 0x01	; 1
 85e:	f1 f7       	brne	.-4      	; 0x85c <__stack+0x3fd>
 860:	00 c0       	rjmp	.+0      	; 0x862 <__stack+0x403>
 862:	ef ef       	ldi	r30, 0xFF	; 255
 864:	ff e3       	ldi	r31, 0x3F	; 63
 866:	31 97       	sbiw	r30, 0x01	; 1
 868:	f1 f7       	brne	.-4      	; 0x866 <__stack+0x407>
 86a:	00 c0       	rjmp	.+0      	; 0x86c <__stack+0x40d>
 86c:	ef ef       	ldi	r30, 0xFF	; 255
 86e:	ff e3       	ldi	r31, 0x3F	; 63
 870:	31 97       	sbiw	r30, 0x01	; 1
 872:	f1 f7       	brne	.-4      	; 0x870 <__stack+0x411>
 874:	00 c0       	rjmp	.+0      	; 0x876 <__stack+0x417>
 876:	ef ef       	ldi	r30, 0xFF	; 255
 878:	ff e3       	ldi	r31, 0x3F	; 63
 87a:	31 97       	sbiw	r30, 0x01	; 1
 87c:	f1 f7       	brne	.-4      	; 0x87a <__stack+0x41b>
 87e:	00 c0       	rjmp	.+0      	; 0x880 <__stack+0x421>
 880:	ef ef       	ldi	r30, 0xFF	; 255
 882:	ff e3       	ldi	r31, 0x3F	; 63
 884:	31 97       	sbiw	r30, 0x01	; 1
 886:	f1 f7       	brne	.-4      	; 0x884 <__stack+0x425>
 888:	00 c0       	rjmp	.+0      	; 0x88a <__stack+0x42b>
 88a:	ef ef       	ldi	r30, 0xFF	; 255
 88c:	ff e3       	ldi	r31, 0x3F	; 63
 88e:	31 97       	sbiw	r30, 0x01	; 1
 890:	f1 f7       	brne	.-4      	; 0x88e <__stack+0x42f>
 892:	00 c0       	rjmp	.+0      	; 0x894 <__stack+0x435>
 894:	ef ef       	ldi	r30, 0xFF	; 255
 896:	ff e3       	ldi	r31, 0x3F	; 63
 898:	31 97       	sbiw	r30, 0x01	; 1
 89a:	f1 f7       	brne	.-4      	; 0x898 <__stack+0x439>
 89c:	00 c0       	rjmp	.+0      	; 0x89e <__stack+0x43f>
 89e:	ef ef       	ldi	r30, 0xFF	; 255
 8a0:	ff e3       	ldi	r31, 0x3F	; 63
 8a2:	31 97       	sbiw	r30, 0x01	; 1
 8a4:	f1 f7       	brne	.-4      	; 0x8a2 <__stack+0x443>
 8a6:	00 c0       	rjmp	.+0      	; 0x8a8 <__stack+0x449>
 8a8:	ef ef       	ldi	r30, 0xFF	; 255
 8aa:	ff e3       	ldi	r31, 0x3F	; 63
 8ac:	31 97       	sbiw	r30, 0x01	; 1
 8ae:	f1 f7       	brne	.-4      	; 0x8ac <__stack+0x44d>
 8b0:	00 c0       	rjmp	.+0      	; 0x8b2 <__stack+0x453>
 8b2:	ef ef       	ldi	r30, 0xFF	; 255
 8b4:	ff e3       	ldi	r31, 0x3F	; 63
 8b6:	31 97       	sbiw	r30, 0x01	; 1
 8b8:	f1 f7       	brne	.-4      	; 0x8b6 <__stack+0x457>
 8ba:	00 c0       	rjmp	.+0      	; 0x8bc <__stack+0x45d>
 8bc:	ef ef       	ldi	r30, 0xFF	; 255
 8be:	ff e3       	ldi	r31, 0x3F	; 63
 8c0:	31 97       	sbiw	r30, 0x01	; 1
 8c2:	f1 f7       	brne	.-4      	; 0x8c0 <__stack+0x461>
 8c4:	00 c0       	rjmp	.+0      	; 0x8c6 <__stack+0x467>
 8c6:	ef ef       	ldi	r30, 0xFF	; 255
 8c8:	ff e3       	ldi	r31, 0x3F	; 63
 8ca:	31 97       	sbiw	r30, 0x01	; 1
 8cc:	f1 f7       	brne	.-4      	; 0x8ca <__stack+0x46b>
 8ce:	00 c0       	rjmp	.+0      	; 0x8d0 <__stack+0x471>
 8d0:	ef ef       	ldi	r30, 0xFF	; 255
 8d2:	ff e3       	ldi	r31, 0x3F	; 63
 8d4:	31 97       	sbiw	r30, 0x01	; 1
 8d6:	f1 f7       	brne	.-4      	; 0x8d4 <__stack+0x475>
 8d8:	00 c0       	rjmp	.+0      	; 0x8da <__stack+0x47b>
 8da:	ef ef       	ldi	r30, 0xFF	; 255
 8dc:	ff e3       	ldi	r31, 0x3F	; 63
 8de:	31 97       	sbiw	r30, 0x01	; 1
 8e0:	f1 f7       	brne	.-4      	; 0x8de <__stack+0x47f>
 8e2:	00 c0       	rjmp	.+0      	; 0x8e4 <__stack+0x485>
 8e4:	ef ef       	ldi	r30, 0xFF	; 255
 8e6:	ff e3       	ldi	r31, 0x3F	; 63
 8e8:	31 97       	sbiw	r30, 0x01	; 1
 8ea:	f1 f7       	brne	.-4      	; 0x8e8 <__stack+0x489>
 8ec:	00 c0       	rjmp	.+0      	; 0x8ee <__stack+0x48f>
 8ee:	ef ef       	ldi	r30, 0xFF	; 255
 8f0:	ff e3       	ldi	r31, 0x3F	; 63
 8f2:	31 97       	sbiw	r30, 0x01	; 1
 8f4:	f1 f7       	brne	.-4      	; 0x8f2 <__stack+0x493>
 8f6:	00 c0       	rjmp	.+0      	; 0x8f8 <__stack+0x499>
 8f8:	ef ef       	ldi	r30, 0xFF	; 255
 8fa:	ff e3       	ldi	r31, 0x3F	; 63
 8fc:	31 97       	sbiw	r30, 0x01	; 1
 8fe:	f1 f7       	brne	.-4      	; 0x8fc <__stack+0x49d>
 900:	00 c0       	rjmp	.+0      	; 0x902 <__stack+0x4a3>
 902:	ef ef       	ldi	r30, 0xFF	; 255
 904:	ff e3       	ldi	r31, 0x3F	; 63
 906:	31 97       	sbiw	r30, 0x01	; 1
 908:	f1 f7       	brne	.-4      	; 0x906 <__stack+0x4a7>
 90a:	00 c0       	rjmp	.+0      	; 0x90c <__stack+0x4ad>
 90c:	ef ef       	ldi	r30, 0xFF	; 255
 90e:	ff e3       	ldi	r31, 0x3F	; 63
 910:	31 97       	sbiw	r30, 0x01	; 1
 912:	f1 f7       	brne	.-4      	; 0x910 <__stack+0x4b1>
 914:	00 c0       	rjmp	.+0      	; 0x916 <__stack+0x4b7>
 916:	ef ef       	ldi	r30, 0xFF	; 255
 918:	ff e3       	ldi	r31, 0x3F	; 63
 91a:	31 97       	sbiw	r30, 0x01	; 1
 91c:	f1 f7       	brne	.-4      	; 0x91a <__stack+0x4bb>
 91e:	00 c0       	rjmp	.+0      	; 0x920 <__stack+0x4c1>
 920:	ef ef       	ldi	r30, 0xFF	; 255
 922:	ff e3       	ldi	r31, 0x3F	; 63
 924:	31 97       	sbiw	r30, 0x01	; 1
 926:	f1 f7       	brne	.-4      	; 0x924 <__stack+0x4c5>
 928:	00 c0       	rjmp	.+0      	; 0x92a <__stack+0x4cb>
 92a:	ef ef       	ldi	r30, 0xFF	; 255
 92c:	ff e3       	ldi	r31, 0x3F	; 63
 92e:	31 97       	sbiw	r30, 0x01	; 1
 930:	f1 f7       	brne	.-4      	; 0x92e <__stack+0x4cf>
 932:	00 c0       	rjmp	.+0      	; 0x934 <__stack+0x4d5>
 934:	ef ef       	ldi	r30, 0xFF	; 255
 936:	ff e3       	ldi	r31, 0x3F	; 63
 938:	31 97       	sbiw	r30, 0x01	; 1
 93a:	f1 f7       	brne	.-4      	; 0x938 <__stack+0x4d9>
 93c:	00 c0       	rjmp	.+0      	; 0x93e <__stack+0x4df>
 93e:	ef ef       	ldi	r30, 0xFF	; 255
 940:	ff e3       	ldi	r31, 0x3F	; 63
 942:	31 97       	sbiw	r30, 0x01	; 1
 944:	f1 f7       	brne	.-4      	; 0x942 <__stack+0x4e3>
 946:	00 c0       	rjmp	.+0      	; 0x948 <__stack+0x4e9>
 948:	ef ef       	ldi	r30, 0xFF	; 255
 94a:	ff e3       	ldi	r31, 0x3F	; 63
 94c:	31 97       	sbiw	r30, 0x01	; 1
 94e:	f1 f7       	brne	.-4      	; 0x94c <__stack+0x4ed>
 950:	00 c0       	rjmp	.+0      	; 0x952 <__stack+0x4f3>
 952:	ef ef       	ldi	r30, 0xFF	; 255
 954:	ff e3       	ldi	r31, 0x3F	; 63
 956:	31 97       	sbiw	r30, 0x01	; 1
 958:	f1 f7       	brne	.-4      	; 0x956 <__stack+0x4f7>
 95a:	00 c0       	rjmp	.+0      	; 0x95c <__stack+0x4fd>
 95c:	ef ef       	ldi	r30, 0xFF	; 255
 95e:	ff e3       	ldi	r31, 0x3F	; 63
 960:	31 97       	sbiw	r30, 0x01	; 1
 962:	f1 f7       	brne	.-4      	; 0x960 <__stack+0x501>
 964:	00 c0       	rjmp	.+0      	; 0x966 <__stack+0x507>
 966:	ef ef       	ldi	r30, 0xFF	; 255
 968:	ff e3       	ldi	r31, 0x3F	; 63
 96a:	31 97       	sbiw	r30, 0x01	; 1
 96c:	f1 f7       	brne	.-4      	; 0x96a <__stack+0x50b>
 96e:	00 c0       	rjmp	.+0      	; 0x970 <__stack+0x511>
 970:	ef ef       	ldi	r30, 0xFF	; 255
 972:	ff e3       	ldi	r31, 0x3F	; 63
 974:	31 97       	sbiw	r30, 0x01	; 1
 976:	f1 f7       	brne	.-4      	; 0x974 <__stack+0x515>
 978:	00 c0       	rjmp	.+0      	; 0x97a <__stack+0x51b>
 97a:	ef ef       	ldi	r30, 0xFF	; 255
 97c:	ff e3       	ldi	r31, 0x3F	; 63
 97e:	31 97       	sbiw	r30, 0x01	; 1
 980:	f1 f7       	brne	.-4      	; 0x97e <__stack+0x51f>
 982:	00 c0       	rjmp	.+0      	; 0x984 <__stack+0x525>
 984:	ef ef       	ldi	r30, 0xFF	; 255
 986:	ff e3       	ldi	r31, 0x3F	; 63
 988:	31 97       	sbiw	r30, 0x01	; 1
 98a:	f1 f7       	brne	.-4      	; 0x988 <__stack+0x529>
 98c:	00 c0       	rjmp	.+0      	; 0x98e <__stack+0x52f>
 98e:	ef ef       	ldi	r30, 0xFF	; 255
 990:	ff e3       	ldi	r31, 0x3F	; 63
 992:	31 97       	sbiw	r30, 0x01	; 1
 994:	f1 f7       	brne	.-4      	; 0x992 <__stack+0x533>
 996:	00 c0       	rjmp	.+0      	; 0x998 <__stack+0x539>
 998:	ef ef       	ldi	r30, 0xFF	; 255
 99a:	ff e3       	ldi	r31, 0x3F	; 63
 99c:	31 97       	sbiw	r30, 0x01	; 1
 99e:	f1 f7       	brne	.-4      	; 0x99c <__stack+0x53d>
 9a0:	00 c0       	rjmp	.+0      	; 0x9a2 <__stack+0x543>
 9a2:	ef ef       	ldi	r30, 0xFF	; 255
 9a4:	ff e3       	ldi	r31, 0x3F	; 63
 9a6:	31 97       	sbiw	r30, 0x01	; 1
 9a8:	f1 f7       	brne	.-4      	; 0x9a6 <__stack+0x547>
 9aa:	00 c0       	rjmp	.+0      	; 0x9ac <__stack+0x54d>
 9ac:	ef ef       	ldi	r30, 0xFF	; 255
 9ae:	ff e3       	ldi	r31, 0x3F	; 63
 9b0:	31 97       	sbiw	r30, 0x01	; 1
 9b2:	f1 f7       	brne	.-4      	; 0x9b0 <__stack+0x551>
 9b4:	00 c0       	rjmp	.+0      	; 0x9b6 <__stack+0x557>
 9b6:	ef ef       	ldi	r30, 0xFF	; 255
 9b8:	ff e3       	ldi	r31, 0x3F	; 63
 9ba:	31 97       	sbiw	r30, 0x01	; 1
 9bc:	f1 f7       	brne	.-4      	; 0x9ba <__stack+0x55b>
 9be:	00 c0       	rjmp	.+0      	; 0x9c0 <__stack+0x561>
 9c0:	ef ef       	ldi	r30, 0xFF	; 255
 9c2:	ff e3       	ldi	r31, 0x3F	; 63
 9c4:	31 97       	sbiw	r30, 0x01	; 1
 9c6:	f1 f7       	brne	.-4      	; 0x9c4 <__stack+0x565>
 9c8:	00 c0       	rjmp	.+0      	; 0x9ca <__stack+0x56b>
 9ca:	ef ef       	ldi	r30, 0xFF	; 255
 9cc:	ff e3       	ldi	r31, 0x3F	; 63
 9ce:	31 97       	sbiw	r30, 0x01	; 1
 9d0:	f1 f7       	brne	.-4      	; 0x9ce <__stack+0x56f>
 9d2:	00 c0       	rjmp	.+0      	; 0x9d4 <__stack+0x575>
 9d4:	ef ef       	ldi	r30, 0xFF	; 255
 9d6:	ff e3       	ldi	r31, 0x3F	; 63
 9d8:	31 97       	sbiw	r30, 0x01	; 1
 9da:	f1 f7       	brne	.-4      	; 0x9d8 <__stack+0x579>
 9dc:	00 c0       	rjmp	.+0      	; 0x9de <__stack+0x57f>
 9de:	ef ef       	ldi	r30, 0xFF	; 255
 9e0:	ff e3       	ldi	r31, 0x3F	; 63
 9e2:	31 97       	sbiw	r30, 0x01	; 1
 9e4:	f1 f7       	brne	.-4      	; 0x9e2 <__stack+0x583>
 9e6:	00 c0       	rjmp	.+0      	; 0x9e8 <__stack+0x589>
 9e8:	ef ef       	ldi	r30, 0xFF	; 255
 9ea:	ff e3       	ldi	r31, 0x3F	; 63
 9ec:	31 97       	sbiw	r30, 0x01	; 1
 9ee:	f1 f7       	brne	.-4      	; 0x9ec <__stack+0x58d>
 9f0:	00 c0       	rjmp	.+0      	; 0x9f2 <__stack+0x593>
 9f2:	ef ef       	ldi	r30, 0xFF	; 255
 9f4:	ff e3       	ldi	r31, 0x3F	; 63
 9f6:	31 97       	sbiw	r30, 0x01	; 1
 9f8:	f1 f7       	brne	.-4      	; 0x9f6 <__stack+0x597>
 9fa:	00 c0       	rjmp	.+0      	; 0x9fc <__stack+0x59d>
 9fc:	ef ef       	ldi	r30, 0xFF	; 255
 9fe:	ff e3       	ldi	r31, 0x3F	; 63
 a00:	31 97       	sbiw	r30, 0x01	; 1
 a02:	f1 f7       	brne	.-4      	; 0xa00 <__stack+0x5a1>
 a04:	00 c0       	rjmp	.+0      	; 0xa06 <__stack+0x5a7>
 a06:	ef ef       	ldi	r30, 0xFF	; 255
 a08:	ff e3       	ldi	r31, 0x3F	; 63
 a0a:	31 97       	sbiw	r30, 0x01	; 1
 a0c:	f1 f7       	brne	.-4      	; 0xa0a <__stack+0x5ab>
 a0e:	00 c0       	rjmp	.+0      	; 0xa10 <__stack+0x5b1>
 a10:	ef ef       	ldi	r30, 0xFF	; 255
 a12:	ff e3       	ldi	r31, 0x3F	; 63
 a14:	31 97       	sbiw	r30, 0x01	; 1
 a16:	f1 f7       	brne	.-4      	; 0xa14 <__stack+0x5b5>
 a18:	00 c0       	rjmp	.+0      	; 0xa1a <__stack+0x5bb>
 a1a:	ef ef       	ldi	r30, 0xFF	; 255
 a1c:	ff e3       	ldi	r31, 0x3F	; 63
 a1e:	31 97       	sbiw	r30, 0x01	; 1
 a20:	f1 f7       	brne	.-4      	; 0xa1e <__stack+0x5bf>
 a22:	00 c0       	rjmp	.+0      	; 0xa24 <__stack+0x5c5>
 a24:	ef ef       	ldi	r30, 0xFF	; 255
 a26:	ff e3       	ldi	r31, 0x3F	; 63
 a28:	31 97       	sbiw	r30, 0x01	; 1
 a2a:	f1 f7       	brne	.-4      	; 0xa28 <__stack+0x5c9>
 a2c:	00 c0       	rjmp	.+0      	; 0xa2e <__stack+0x5cf>
 a2e:	ef ef       	ldi	r30, 0xFF	; 255
 a30:	ff e3       	ldi	r31, 0x3F	; 63
 a32:	31 97       	sbiw	r30, 0x01	; 1
 a34:	f1 f7       	brne	.-4      	; 0xa32 <__stack+0x5d3>
 a36:	00 c0       	rjmp	.+0      	; 0xa38 <__stack+0x5d9>
 a38:	ef ef       	ldi	r30, 0xFF	; 255
 a3a:	ff e3       	ldi	r31, 0x3F	; 63
 a3c:	31 97       	sbiw	r30, 0x01	; 1
 a3e:	f1 f7       	brne	.-4      	; 0xa3c <__stack+0x5dd>
 a40:	00 c0       	rjmp	.+0      	; 0xa42 <__stack+0x5e3>
 a42:	ef ef       	ldi	r30, 0xFF	; 255
 a44:	ff e3       	ldi	r31, 0x3F	; 63
 a46:	31 97       	sbiw	r30, 0x01	; 1
 a48:	f1 f7       	brne	.-4      	; 0xa46 <__stack+0x5e7>
 a4a:	00 c0       	rjmp	.+0      	; 0xa4c <__stack+0x5ed>
 a4c:	ef ef       	ldi	r30, 0xFF	; 255
 a4e:	ff e3       	ldi	r31, 0x3F	; 63
 a50:	31 97       	sbiw	r30, 0x01	; 1
 a52:	f1 f7       	brne	.-4      	; 0xa50 <__stack+0x5f1>
 a54:	00 c0       	rjmp	.+0      	; 0xa56 <__stack+0x5f7>
 a56:	ef ef       	ldi	r30, 0xFF	; 255
 a58:	ff e3       	ldi	r31, 0x3F	; 63
 a5a:	31 97       	sbiw	r30, 0x01	; 1
 a5c:	f1 f7       	brne	.-4      	; 0xa5a <__stack+0x5fb>
 a5e:	00 c0       	rjmp	.+0      	; 0xa60 <__stack+0x601>
 a60:	ef ef       	ldi	r30, 0xFF	; 255
 a62:	ff e3       	ldi	r31, 0x3F	; 63
 a64:	31 97       	sbiw	r30, 0x01	; 1
 a66:	f1 f7       	brne	.-4      	; 0xa64 <__stack+0x605>
 a68:	00 c0       	rjmp	.+0      	; 0xa6a <__stack+0x60b>
 a6a:	ef ef       	ldi	r30, 0xFF	; 255
 a6c:	ff e3       	ldi	r31, 0x3F	; 63
 a6e:	31 97       	sbiw	r30, 0x01	; 1
 a70:	f1 f7       	brne	.-4      	; 0xa6e <__stack+0x60f>
 a72:	00 c0       	rjmp	.+0      	; 0xa74 <__stack+0x615>
 a74:	ef ef       	ldi	r30, 0xFF	; 255
 a76:	ff e3       	ldi	r31, 0x3F	; 63
 a78:	31 97       	sbiw	r30, 0x01	; 1
 a7a:	f1 f7       	brne	.-4      	; 0xa78 <__stack+0x619>
 a7c:	00 c0       	rjmp	.+0      	; 0xa7e <__stack+0x61f>
 a7e:	ef ef       	ldi	r30, 0xFF	; 255
 a80:	ff e3       	ldi	r31, 0x3F	; 63
 a82:	31 97       	sbiw	r30, 0x01	; 1
 a84:	f1 f7       	brne	.-4      	; 0xa82 <__stack+0x623>
 a86:	00 c0       	rjmp	.+0      	; 0xa88 <__stack+0x629>
 a88:	ef ef       	ldi	r30, 0xFF	; 255
 a8a:	ff e3       	ldi	r31, 0x3F	; 63
 a8c:	31 97       	sbiw	r30, 0x01	; 1
 a8e:	f1 f7       	brne	.-4      	; 0xa8c <__stack+0x62d>
 a90:	00 c0       	rjmp	.+0      	; 0xa92 <__stack+0x633>
 a92:	ef ef       	ldi	r30, 0xFF	; 255
 a94:	ff e3       	ldi	r31, 0x3F	; 63
 a96:	31 97       	sbiw	r30, 0x01	; 1
 a98:	f1 f7       	brne	.-4      	; 0xa96 <__stack+0x637>
 a9a:	00 c0       	rjmp	.+0      	; 0xa9c <__stack+0x63d>
 a9c:	ef ef       	ldi	r30, 0xFF	; 255
 a9e:	ff e3       	ldi	r31, 0x3F	; 63
 aa0:	31 97       	sbiw	r30, 0x01	; 1
 aa2:	f1 f7       	brne	.-4      	; 0xaa0 <__stack+0x641>
 aa4:	00 c0       	rjmp	.+0      	; 0xaa6 <__stack+0x647>
 aa6:	ef ef       	ldi	r30, 0xFF	; 255
 aa8:	ff e3       	ldi	r31, 0x3F	; 63
 aaa:	31 97       	sbiw	r30, 0x01	; 1
 aac:	f1 f7       	brne	.-4      	; 0xaaa <__stack+0x64b>
 aae:	00 c0       	rjmp	.+0      	; 0xab0 <__stack+0x651>
 ab0:	ef ef       	ldi	r30, 0xFF	; 255
 ab2:	ff e3       	ldi	r31, 0x3F	; 63
 ab4:	31 97       	sbiw	r30, 0x01	; 1
 ab6:	f1 f7       	brne	.-4      	; 0xab4 <__stack+0x655>
 ab8:	00 c0       	rjmp	.+0      	; 0xaba <__stack+0x65b>
 aba:	ef ef       	ldi	r30, 0xFF	; 255
 abc:	ff e3       	ldi	r31, 0x3F	; 63
 abe:	31 97       	sbiw	r30, 0x01	; 1
 ac0:	f1 f7       	brne	.-4      	; 0xabe <__stack+0x65f>
 ac2:	00 c0       	rjmp	.+0      	; 0xac4 <__stack+0x665>
 ac4:	ef ef       	ldi	r30, 0xFF	; 255
 ac6:	ff e3       	ldi	r31, 0x3F	; 63
 ac8:	31 97       	sbiw	r30, 0x01	; 1
 aca:	f1 f7       	brne	.-4      	; 0xac8 <__stack+0x669>
 acc:	00 c0       	rjmp	.+0      	; 0xace <__stack+0x66f>
 ace:	ef ef       	ldi	r30, 0xFF	; 255
 ad0:	ff e3       	ldi	r31, 0x3F	; 63
 ad2:	31 97       	sbiw	r30, 0x01	; 1
 ad4:	f1 f7       	brne	.-4      	; 0xad2 <__stack+0x673>
 ad6:	00 c0       	rjmp	.+0      	; 0xad8 <__stack+0x679>
 ad8:	ef ef       	ldi	r30, 0xFF	; 255
 ada:	ff e3       	ldi	r31, 0x3F	; 63
 adc:	31 97       	sbiw	r30, 0x01	; 1
 ade:	f1 f7       	brne	.-4      	; 0xadc <__stack+0x67d>
 ae0:	00 c0       	rjmp	.+0      	; 0xae2 <__stack+0x683>
 ae2:	ef ef       	ldi	r30, 0xFF	; 255
 ae4:	ff e3       	ldi	r31, 0x3F	; 63
 ae6:	31 97       	sbiw	r30, 0x01	; 1
 ae8:	f1 f7       	brne	.-4      	; 0xae6 <__stack+0x687>
 aea:	00 c0       	rjmp	.+0      	; 0xaec <__stack+0x68d>
 aec:	ef ef       	ldi	r30, 0xFF	; 255
 aee:	ff e3       	ldi	r31, 0x3F	; 63
 af0:	31 97       	sbiw	r30, 0x01	; 1
 af2:	f1 f7       	brne	.-4      	; 0xaf0 <__stack+0x691>
 af4:	00 c0       	rjmp	.+0      	; 0xaf6 <__stack+0x697>
 af6:	ef ef       	ldi	r30, 0xFF	; 255
 af8:	ff e3       	ldi	r31, 0x3F	; 63
 afa:	31 97       	sbiw	r30, 0x01	; 1
 afc:	f1 f7       	brne	.-4      	; 0xafa <__stack+0x69b>
 afe:	00 c0       	rjmp	.+0      	; 0xb00 <__stack+0x6a1>
 b00:	ef ef       	ldi	r30, 0xFF	; 255
 b02:	ff e3       	ldi	r31, 0x3F	; 63
 b04:	31 97       	sbiw	r30, 0x01	; 1
 b06:	f1 f7       	brne	.-4      	; 0xb04 <__stack+0x6a5>
 b08:	00 c0       	rjmp	.+0      	; 0xb0a <__stack+0x6ab>
 b0a:	ef ef       	ldi	r30, 0xFF	; 255
 b0c:	ff e3       	ldi	r31, 0x3F	; 63
 b0e:	31 97       	sbiw	r30, 0x01	; 1
 b10:	f1 f7       	brne	.-4      	; 0xb0e <__stack+0x6af>
 b12:	00 c0       	rjmp	.+0      	; 0xb14 <__stack+0x6b5>
 b14:	ef ef       	ldi	r30, 0xFF	; 255
 b16:	ff e3       	ldi	r31, 0x3F	; 63
 b18:	31 97       	sbiw	r30, 0x01	; 1
 b1a:	f1 f7       	brne	.-4      	; 0xb18 <__stack+0x6b9>
 b1c:	00 c0       	rjmp	.+0      	; 0xb1e <__stack+0x6bf>
 b1e:	ef ef       	ldi	r30, 0xFF	; 255
 b20:	ff e3       	ldi	r31, 0x3F	; 63
 b22:	31 97       	sbiw	r30, 0x01	; 1
 b24:	f1 f7       	brne	.-4      	; 0xb22 <__stack+0x6c3>
 b26:	00 c0       	rjmp	.+0      	; 0xb28 <__stack+0x6c9>
 b28:	ef ef       	ldi	r30, 0xFF	; 255
 b2a:	ff e3       	ldi	r31, 0x3F	; 63
 b2c:	31 97       	sbiw	r30, 0x01	; 1
 b2e:	f1 f7       	brne	.-4      	; 0xb2c <__stack+0x6cd>
 b30:	00 c0       	rjmp	.+0      	; 0xb32 <__stack+0x6d3>
 b32:	ef ef       	ldi	r30, 0xFF	; 255
 b34:	ff e3       	ldi	r31, 0x3F	; 63
 b36:	31 97       	sbiw	r30, 0x01	; 1
 b38:	f1 f7       	brne	.-4      	; 0xb36 <__stack+0x6d7>
 b3a:	00 c0       	rjmp	.+0      	; 0xb3c <__stack+0x6dd>
 b3c:	ef ef       	ldi	r30, 0xFF	; 255
 b3e:	ff e3       	ldi	r31, 0x3F	; 63
 b40:	31 97       	sbiw	r30, 0x01	; 1
 b42:	f1 f7       	brne	.-4      	; 0xb40 <__stack+0x6e1>
 b44:	00 c0       	rjmp	.+0      	; 0xb46 <__stack+0x6e7>
 b46:	ef ef       	ldi	r30, 0xFF	; 255
 b48:	ff e3       	ldi	r31, 0x3F	; 63
 b4a:	31 97       	sbiw	r30, 0x01	; 1
 b4c:	f1 f7       	brne	.-4      	; 0xb4a <__stack+0x6eb>
 b4e:	00 c0       	rjmp	.+0      	; 0xb50 <__stack+0x6f1>
 b50:	ef ef       	ldi	r30, 0xFF	; 255
 b52:	ff e3       	ldi	r31, 0x3F	; 63
 b54:	31 97       	sbiw	r30, 0x01	; 1
 b56:	f1 f7       	brne	.-4      	; 0xb54 <__stack+0x6f5>
 b58:	00 c0       	rjmp	.+0      	; 0xb5a <__stack+0x6fb>
 b5a:	ef ef       	ldi	r30, 0xFF	; 255
 b5c:	ff e3       	ldi	r31, 0x3F	; 63
 b5e:	31 97       	sbiw	r30, 0x01	; 1
 b60:	f1 f7       	brne	.-4      	; 0xb5e <__stack+0x6ff>
 b62:	00 c0       	rjmp	.+0      	; 0xb64 <__stack+0x705>
 b64:	ef ef       	ldi	r30, 0xFF	; 255
 b66:	ff e3       	ldi	r31, 0x3F	; 63
 b68:	31 97       	sbiw	r30, 0x01	; 1
 b6a:	f1 f7       	brne	.-4      	; 0xb68 <__stack+0x709>
 b6c:	00 c0       	rjmp	.+0      	; 0xb6e <__stack+0x70f>
 b6e:	ef ef       	ldi	r30, 0xFF	; 255
 b70:	ff e3       	ldi	r31, 0x3F	; 63
 b72:	31 97       	sbiw	r30, 0x01	; 1
 b74:	f1 f7       	brne	.-4      	; 0xb72 <__stack+0x713>
 b76:	00 c0       	rjmp	.+0      	; 0xb78 <__stack+0x719>
 b78:	ef ef       	ldi	r30, 0xFF	; 255
 b7a:	ff e3       	ldi	r31, 0x3F	; 63
 b7c:	31 97       	sbiw	r30, 0x01	; 1
 b7e:	f1 f7       	brne	.-4      	; 0xb7c <__stack+0x71d>
 b80:	00 c0       	rjmp	.+0      	; 0xb82 <__stack+0x723>
 b82:	ef ef       	ldi	r30, 0xFF	; 255
 b84:	ff e3       	ldi	r31, 0x3F	; 63
 b86:	31 97       	sbiw	r30, 0x01	; 1
 b88:	f1 f7       	brne	.-4      	; 0xb86 <__stack+0x727>
 b8a:	00 c0       	rjmp	.+0      	; 0xb8c <__stack+0x72d>
 b8c:	ef ef       	ldi	r30, 0xFF	; 255
 b8e:	ff e3       	ldi	r31, 0x3F	; 63
 b90:	31 97       	sbiw	r30, 0x01	; 1
 b92:	f1 f7       	brne	.-4      	; 0xb90 <__stack+0x731>
 b94:	00 c0       	rjmp	.+0      	; 0xb96 <__stack+0x737>
 b96:	ef ef       	ldi	r30, 0xFF	; 255
 b98:	ff e3       	ldi	r31, 0x3F	; 63
 b9a:	31 97       	sbiw	r30, 0x01	; 1
 b9c:	f1 f7       	brne	.-4      	; 0xb9a <__stack+0x73b>
 b9e:	00 c0       	rjmp	.+0      	; 0xba0 <__stack+0x741>
 ba0:	54 ca       	rjmp	.-2904   	; 0x4a <__SREG__+0xb>

00000ba2 <_exit>:
 ba2:	f8 94       	cli

00000ba4 <__stop_program>:
 ba4:	ff cf       	rjmp	.-2      	; 0xba4 <__stop_program>
