
bin/Release/rgbcont.elf:     file format elf32-avr

Sections:
Idx Name          Size      VMA       LMA       File off  Algn
  0 .text         0000025c  00000000  00000000  00000074  2**1
                  CONTENTS, ALLOC, LOAD, READONLY, CODE
  1 .data         00000000  00800060  0000025c  000002d0  2**0
                  CONTENTS, ALLOC, LOAD, DATA
  2 .stab         000006cc  00000000  00000000  000002d0  2**2
                  CONTENTS, READONLY, DEBUGGING
  3 .stabstr      00000054  00000000  00000000  0000099c  2**0
                  CONTENTS, READONLY, DEBUGGING
  4 .comment      00000011  00000000  00000000  000009f0  2**0
                  CONTENTS, READONLY

Disassembly of section .text:

00000000 <__vectors>:
   0:	12 c0       	rjmp	.+36     	; 0x26 <__ctors_end>
   2:	19 c0       	rjmp	.+50     	; 0x36 <__bad_interrupt>
   4:	18 c0       	rjmp	.+48     	; 0x36 <__bad_interrupt>
   6:	17 c0       	rjmp	.+46     	; 0x36 <__bad_interrupt>
   8:	16 c0       	rjmp	.+44     	; 0x36 <__bad_interrupt>
   a:	15 c0       	rjmp	.+42     	; 0x36 <__bad_interrupt>
   c:	14 c0       	rjmp	.+40     	; 0x36 <__bad_interrupt>
   e:	13 c0       	rjmp	.+38     	; 0x36 <__bad_interrupt>
  10:	12 c0       	rjmp	.+36     	; 0x36 <__bad_interrupt>
  12:	11 c0       	rjmp	.+34     	; 0x36 <__bad_interrupt>
  14:	10 c0       	rjmp	.+32     	; 0x36 <__bad_interrupt>
  16:	0f c0       	rjmp	.+30     	; 0x36 <__bad_interrupt>
  18:	0e c0       	rjmp	.+28     	; 0x36 <__bad_interrupt>
  1a:	0d c0       	rjmp	.+26     	; 0x36 <__bad_interrupt>
  1c:	0c c0       	rjmp	.+24     	; 0x36 <__bad_interrupt>
  1e:	0b c0       	rjmp	.+22     	; 0x36 <__bad_interrupt>
  20:	0a c0       	rjmp	.+20     	; 0x36 <__bad_interrupt>
  22:	09 c0       	rjmp	.+18     	; 0x36 <__bad_interrupt>
  24:	08 c0       	rjmp	.+16     	; 0x36 <__bad_interrupt>

00000026 <__ctors_end>:
  26:	11 24       	eor	r1, r1
  28:	1f be       	out	0x3f, r1	; 63
  2a:	cf e5       	ldi	r28, 0x5F	; 95
  2c:	d4 e0       	ldi	r29, 0x04	; 4
  2e:	de bf       	out	0x3e, r29	; 62
  30:	cd bf       	out	0x3d, r28	; 61
  32:	02 d0       	rcall	.+4      	; 0x38 <main>
  34:	11 c1       	rjmp	.+546    	; 0x258 <_exit>

00000036 <__bad_interrupt>:
  36:	e4 cf       	rjmp	.-56     	; 0x0 <__vectors>

00000038 <main>:
  38:	18 ba       	out	0x18, r1	; 24
  3a:	8e e0       	ldi	r24, 0x0E	; 14
  3c:	87 bb       	out	0x17, r24	; 23
  3e:	15 ba       	out	0x15, r1	; 21
  40:	14 ba       	out	0x14, r1	; 20
  42:	12 ba       	out	0x12, r1	; 18
  44:	11 ba       	out	0x11, r1	; 17
  46:	13 be       	out	0x33, r1	; 51
  48:	12 be       	out	0x32, r1	; 50
  4a:	81 ea       	ldi	r24, 0xA1	; 161
  4c:	8f bd       	out	0x2f, r24	; 47
  4e:	89 e0       	ldi	r24, 0x09	; 9
  50:	8e bd       	out	0x2e, r24	; 46
  52:	1d bc       	out	0x2d, r1	; 45
  54:	1c bc       	out	0x2c, r1	; 44
  56:	17 bc       	out	0x27, r1	; 39
  58:	16 bc       	out	0x26, r1	; 38
  5a:	1b bc       	out	0x2b, r1	; 43
  5c:	1a bc       	out	0x2a, r1	; 42
  5e:	19 bc       	out	0x29, r1	; 41
  60:	18 bc       	out	0x28, r1	; 40
  62:	12 bc       	out	0x22, r1	; 34
  64:	89 e6       	ldi	r24, 0x69	; 105
  66:	85 bd       	out	0x25, r24	; 37
  68:	14 bc       	out	0x24, r1	; 36
  6a:	13 bc       	out	0x23, r1	; 35
  6c:	15 be       	out	0x35, r1	; 53
  6e:	19 be       	out	0x39, r1	; 57
  70:	80 e8       	ldi	r24, 0x80	; 128
  72:	88 b9       	out	0x08, r24	; 8
  74:	10 be       	out	0x30, r1	; 48
  76:	8f e3       	ldi	r24, 0x3F	; 63
  78:	87 bb       	out	0x17, r24	; 23
  7a:	14 ba       	out	0x14, r1	; 20
  7c:	8f ef       	ldi	r24, 0xFF	; 255
  7e:	98 9b       	sbis	0x13, 0	; 19
  80:	23 c0       	rjmp	.+70     	; 0xc8 <__SREG__+0x89>
  82:	9a 9b       	sbis	0x13, 2	; 19
  84:	21 c0       	rjmp	.+66     	; 0xc8 <__SREG__+0x89>
  86:	9a b5       	in	r25, 0x2a	; 42
  88:	9f 5f       	subi	r25, 0xFF	; 255
  8a:	9a bd       	out	0x2a, r25	; 42
  8c:	ef ef       	ldi	r30, 0xFF	; 255
  8e:	ff e3       	ldi	r31, 0x3F	; 63
  90:	31 97       	sbiw	r30, 0x01	; 1
  92:	f1 f7       	brne	.-4      	; 0x90 <__SREG__+0x51>
  94:	00 c0       	rjmp	.+0      	; 0x96 <__SREG__+0x57>
  96:	ef ef       	ldi	r30, 0xFF	; 255
  98:	ff e3       	ldi	r31, 0x3F	; 63
  9a:	31 97       	sbiw	r30, 0x01	; 1
  9c:	f1 f7       	brne	.-4      	; 0x9a <__SREG__+0x5b>
  9e:	00 c0       	rjmp	.+0      	; 0xa0 <__SREG__+0x61>
  a0:	ef ef       	ldi	r30, 0xFF	; 255
  a2:	ff e3       	ldi	r31, 0x3F	; 63
  a4:	31 97       	sbiw	r30, 0x01	; 1
  a6:	f1 f7       	brne	.-4      	; 0xa4 <__SREG__+0x65>
  a8:	00 c0       	rjmp	.+0      	; 0xaa <__SREG__+0x6b>
  aa:	ef ef       	ldi	r30, 0xFF	; 255
  ac:	ff e3       	ldi	r31, 0x3F	; 63
  ae:	31 97       	sbiw	r30, 0x01	; 1
  b0:	f1 f7       	brne	.-4      	; 0xae <__SREG__+0x6f>
  b2:	00 c0       	rjmp	.+0      	; 0xb4 <__SREG__+0x75>
  b4:	ef ef       	ldi	r30, 0xFF	; 255
  b6:	ff e3       	ldi	r31, 0x3F	; 63
  b8:	31 97       	sbiw	r30, 0x01	; 1
  ba:	f1 f7       	brne	.-4      	; 0xb8 <__SREG__+0x79>
  bc:	00 c0       	rjmp	.+0      	; 0xbe <__SREG__+0x7f>
  be:	ef ef       	ldi	r30, 0xFF	; 255
  c0:	ff e3       	ldi	r31, 0x3F	; 63
  c2:	31 97       	sbiw	r30, 0x01	; 1
  c4:	f1 f7       	brne	.-4      	; 0xc2 <__SREG__+0x83>
  c6:	00 c0       	rjmp	.+0      	; 0xc8 <__SREG__+0x89>
  c8:	99 9b       	sbis	0x13, 1	; 19
  ca:	23 c0       	rjmp	.+70     	; 0x112 <__SREG__+0xd3>
  cc:	9a 9b       	sbis	0x13, 2	; 19
  ce:	21 c0       	rjmp	.+66     	; 0x112 <__SREG__+0xd3>
  d0:	9a b5       	in	r25, 0x2a	; 42
  d2:	91 50       	subi	r25, 0x01	; 1
  d4:	9a bd       	out	0x2a, r25	; 42
  d6:	ef ef       	ldi	r30, 0xFF	; 255
  d8:	ff e3       	ldi	r31, 0x3F	; 63
  da:	31 97       	sbiw	r30, 0x01	; 1
  dc:	f1 f7       	brne	.-4      	; 0xda <__SREG__+0x9b>
  de:	00 c0       	rjmp	.+0      	; 0xe0 <__SREG__+0xa1>
  e0:	ef ef       	ldi	r30, 0xFF	; 255
  e2:	ff e3       	ldi	r31, 0x3F	; 63
  e4:	31 97       	sbiw	r30, 0x01	; 1
  e6:	f1 f7       	brne	.-4      	; 0xe4 <__SREG__+0xa5>
  e8:	00 c0       	rjmp	.+0      	; 0xea <__SREG__+0xab>
  ea:	ef ef       	ldi	r30, 0xFF	; 255
  ec:	ff e3       	ldi	r31, 0x3F	; 63
  ee:	31 97       	sbiw	r30, 0x01	; 1
  f0:	f1 f7       	brne	.-4      	; 0xee <__SREG__+0xaf>
  f2:	00 c0       	rjmp	.+0      	; 0xf4 <__SREG__+0xb5>
  f4:	ef ef       	ldi	r30, 0xFF	; 255
  f6:	ff e3       	ldi	r31, 0x3F	; 63
  f8:	31 97       	sbiw	r30, 0x01	; 1
  fa:	f1 f7       	brne	.-4      	; 0xf8 <__SREG__+0xb9>
  fc:	00 c0       	rjmp	.+0      	; 0xfe <__SREG__+0xbf>
  fe:	ef ef       	ldi	r30, 0xFF	; 255
 100:	ff e3       	ldi	r31, 0x3F	; 63
 102:	31 97       	sbiw	r30, 0x01	; 1
 104:	f1 f7       	brne	.-4      	; 0x102 <__SREG__+0xc3>
 106:	00 c0       	rjmp	.+0      	; 0x108 <__SREG__+0xc9>
 108:	ef ef       	ldi	r30, 0xFF	; 255
 10a:	ff e3       	ldi	r31, 0x3F	; 63
 10c:	31 97       	sbiw	r30, 0x01	; 1
 10e:	f1 f7       	brne	.-4      	; 0x10c <__SREG__+0xcd>
 110:	00 c0       	rjmp	.+0      	; 0x112 <__SREG__+0xd3>
 112:	98 9b       	sbis	0x13, 0	; 19
 114:	23 c0       	rjmp	.+70     	; 0x15c <__SREG__+0x11d>
 116:	9b 9b       	sbis	0x13, 3	; 19
 118:	21 c0       	rjmp	.+66     	; 0x15c <__SREG__+0x11d>
 11a:	98 b5       	in	r25, 0x28	; 40
 11c:	9f 5f       	subi	r25, 0xFF	; 255
 11e:	98 bd       	out	0x28, r25	; 40
 120:	ef ef       	ldi	r30, 0xFF	; 255
 122:	ff e3       	ldi	r31, 0x3F	; 63
 124:	31 97       	sbiw	r30, 0x01	; 1
 126:	f1 f7       	brne	.-4      	; 0x124 <__SREG__+0xe5>
 128:	00 c0       	rjmp	.+0      	; 0x12a <__SREG__+0xeb>
 12a:	ef ef       	ldi	r30, 0xFF	; 255
 12c:	ff e3       	ldi	r31, 0x3F	; 63
 12e:	31 97       	sbiw	r30, 0x01	; 1
 130:	f1 f7       	brne	.-4      	; 0x12e <__SREG__+0xef>
 132:	00 c0       	rjmp	.+0      	; 0x134 <__SREG__+0xf5>
 134:	ef ef       	ldi	r30, 0xFF	; 255
 136:	ff e3       	ldi	r31, 0x3F	; 63
 138:	31 97       	sbiw	r30, 0x01	; 1
 13a:	f1 f7       	brne	.-4      	; 0x138 <__SREG__+0xf9>
 13c:	00 c0       	rjmp	.+0      	; 0x13e <__SREG__+0xff>
 13e:	ef ef       	ldi	r30, 0xFF	; 255
 140:	ff e3       	ldi	r31, 0x3F	; 63
 142:	31 97       	sbiw	r30, 0x01	; 1
 144:	f1 f7       	brne	.-4      	; 0x142 <__SREG__+0x103>
 146:	00 c0       	rjmp	.+0      	; 0x148 <__SREG__+0x109>
 148:	ef ef       	ldi	r30, 0xFF	; 255
 14a:	ff e3       	ldi	r31, 0x3F	; 63
 14c:	31 97       	sbiw	r30, 0x01	; 1
 14e:	f1 f7       	brne	.-4      	; 0x14c <__SREG__+0x10d>
 150:	00 c0       	rjmp	.+0      	; 0x152 <__SREG__+0x113>
 152:	ef ef       	ldi	r30, 0xFF	; 255
 154:	ff e3       	ldi	r31, 0x3F	; 63
 156:	31 97       	sbiw	r30, 0x01	; 1
 158:	f1 f7       	brne	.-4      	; 0x156 <__SREG__+0x117>
 15a:	00 c0       	rjmp	.+0      	; 0x15c <__SREG__+0x11d>
 15c:	99 9b       	sbis	0x13, 1	; 19
 15e:	23 c0       	rjmp	.+70     	; 0x1a6 <__SREG__+0x167>
 160:	9b 9b       	sbis	0x13, 3	; 19
 162:	21 c0       	rjmp	.+66     	; 0x1a6 <__SREG__+0x167>
 164:	98 b5       	in	r25, 0x28	; 40
 166:	91 50       	subi	r25, 0x01	; 1
 168:	98 bd       	out	0x28, r25	; 40
 16a:	ef ef       	ldi	r30, 0xFF	; 255
 16c:	ff e3       	ldi	r31, 0x3F	; 63
 16e:	31 97       	sbiw	r30, 0x01	; 1
 170:	f1 f7       	brne	.-4      	; 0x16e <__SREG__+0x12f>
 172:	00 c0       	rjmp	.+0      	; 0x174 <__SREG__+0x135>
 174:	ef ef       	ldi	r30, 0xFF	; 255
 176:	ff e3       	ldi	r31, 0x3F	; 63
 178:	31 97       	sbiw	r30, 0x01	; 1
 17a:	f1 f7       	brne	.-4      	; 0x178 <__SREG__+0x139>
 17c:	00 c0       	rjmp	.+0      	; 0x17e <__SREG__+0x13f>
 17e:	ef ef       	ldi	r30, 0xFF	; 255
 180:	ff e3       	ldi	r31, 0x3F	; 63
 182:	31 97       	sbiw	r30, 0x01	; 1
 184:	f1 f7       	brne	.-4      	; 0x182 <__SREG__+0x143>
 186:	00 c0       	rjmp	.+0      	; 0x188 <__SREG__+0x149>
 188:	ef ef       	ldi	r30, 0xFF	; 255
 18a:	ff e3       	ldi	r31, 0x3F	; 63
 18c:	31 97       	sbiw	r30, 0x01	; 1
 18e:	f1 f7       	brne	.-4      	; 0x18c <__SREG__+0x14d>
 190:	00 c0       	rjmp	.+0      	; 0x192 <__SREG__+0x153>
 192:	ef ef       	ldi	r30, 0xFF	; 255
 194:	ff e3       	ldi	r31, 0x3F	; 63
 196:	31 97       	sbiw	r30, 0x01	; 1
 198:	f1 f7       	brne	.-4      	; 0x196 <__SREG__+0x157>
 19a:	00 c0       	rjmp	.+0      	; 0x19c <__SREG__+0x15d>
 19c:	ef ef       	ldi	r30, 0xFF	; 255
 19e:	ff e3       	ldi	r31, 0x3F	; 63
 1a0:	31 97       	sbiw	r30, 0x01	; 1
 1a2:	f1 f7       	brne	.-4      	; 0x1a0 <__SREG__+0x161>
 1a4:	00 c0       	rjmp	.+0      	; 0x1a6 <__SREG__+0x167>
 1a6:	98 9b       	sbis	0x13, 0	; 19
 1a8:	23 c0       	rjmp	.+70     	; 0x1f0 <__SREG__+0x1b1>
 1aa:	9c 9b       	sbis	0x13, 4	; 19
 1ac:	21 c0       	rjmp	.+66     	; 0x1f0 <__SREG__+0x1b1>
 1ae:	93 b5       	in	r25, 0x23	; 35
 1b0:	9f 5f       	subi	r25, 0xFF	; 255
 1b2:	93 bd       	out	0x23, r25	; 35
 1b4:	ef ef       	ldi	r30, 0xFF	; 255
 1b6:	ff e3       	ldi	r31, 0x3F	; 63
 1b8:	31 97       	sbiw	r30, 0x01	; 1
 1ba:	f1 f7       	brne	.-4      	; 0x1b8 <__SREG__+0x179>
 1bc:	00 c0       	rjmp	.+0      	; 0x1be <__SREG__+0x17f>
 1be:	ef ef       	ldi	r30, 0xFF	; 255
 1c0:	ff e3       	ldi	r31, 0x3F	; 63
 1c2:	31 97       	sbiw	r30, 0x01	; 1
 1c4:	f1 f7       	brne	.-4      	; 0x1c2 <__SREG__+0x183>
 1c6:	00 c0       	rjmp	.+0      	; 0x1c8 <__SREG__+0x189>
 1c8:	ef ef       	ldi	r30, 0xFF	; 255
 1ca:	ff e3       	ldi	r31, 0x3F	; 63
 1cc:	31 97       	sbiw	r30, 0x01	; 1
 1ce:	f1 f7       	brne	.-4      	; 0x1cc <__SREG__+0x18d>
 1d0:	00 c0       	rjmp	.+0      	; 0x1d2 <__SREG__+0x193>
 1d2:	ef ef       	ldi	r30, 0xFF	; 255
 1d4:	ff e3       	ldi	r31, 0x3F	; 63
 1d6:	31 97       	sbiw	r30, 0x01	; 1
 1d8:	f1 f7       	brne	.-4      	; 0x1d6 <__SREG__+0x197>
 1da:	00 c0       	rjmp	.+0      	; 0x1dc <__SREG__+0x19d>
 1dc:	ef ef       	ldi	r30, 0xFF	; 255
 1de:	ff e3       	ldi	r31, 0x3F	; 63
 1e0:	31 97       	sbiw	r30, 0x01	; 1
 1e2:	f1 f7       	brne	.-4      	; 0x1e0 <__SREG__+0x1a1>
 1e4:	00 c0       	rjmp	.+0      	; 0x1e6 <__SREG__+0x1a7>
 1e6:	ef ef       	ldi	r30, 0xFF	; 255
 1e8:	ff e3       	ldi	r31, 0x3F	; 63
 1ea:	31 97       	sbiw	r30, 0x01	; 1
 1ec:	f1 f7       	brne	.-4      	; 0x1ea <__SREG__+0x1ab>
 1ee:	00 c0       	rjmp	.+0      	; 0x1f0 <__SREG__+0x1b1>
 1f0:	99 9b       	sbis	0x13, 1	; 19
 1f2:	23 c0       	rjmp	.+70     	; 0x23a <__SREG__+0x1fb>
 1f4:	9c 9b       	sbis	0x13, 4	; 19
 1f6:	21 c0       	rjmp	.+66     	; 0x23a <__SREG__+0x1fb>
 1f8:	93 b5       	in	r25, 0x23	; 35
 1fa:	91 50       	subi	r25, 0x01	; 1
 1fc:	93 bd       	out	0x23, r25	; 35
 1fe:	ef ef       	ldi	r30, 0xFF	; 255
 200:	ff e3       	ldi	r31, 0x3F	; 63
 202:	31 97       	sbiw	r30, 0x01	; 1
 204:	f1 f7       	brne	.-4      	; 0x202 <__SREG__+0x1c3>
 206:	00 c0       	rjmp	.+0      	; 0x208 <__SREG__+0x1c9>
 208:	ef ef       	ldi	r30, 0xFF	; 255
 20a:	ff e3       	ldi	r31, 0x3F	; 63
 20c:	31 97       	sbiw	r30, 0x01	; 1
 20e:	f1 f7       	brne	.-4      	; 0x20c <__SREG__+0x1cd>
 210:	00 c0       	rjmp	.+0      	; 0x212 <__SREG__+0x1d3>
 212:	ef ef       	ldi	r30, 0xFF	; 255
 214:	ff e3       	ldi	r31, 0x3F	; 63
 216:	31 97       	sbiw	r30, 0x01	; 1
 218:	f1 f7       	brne	.-4      	; 0x216 <__SREG__+0x1d7>
 21a:	00 c0       	rjmp	.+0      	; 0x21c <__SREG__+0x1dd>
 21c:	ef ef       	ldi	r30, 0xFF	; 255
 21e:	ff e3       	ldi	r31, 0x3F	; 63
 220:	31 97       	sbiw	r30, 0x01	; 1
 222:	f1 f7       	brne	.-4      	; 0x220 <__SREG__+0x1e1>
 224:	00 c0       	rjmp	.+0      	; 0x226 <__SREG__+0x1e7>
 226:	ef ef       	ldi	r30, 0xFF	; 255
 228:	ff e3       	ldi	r31, 0x3F	; 63
 22a:	31 97       	sbiw	r30, 0x01	; 1
 22c:	f1 f7       	brne	.-4      	; 0x22a <__SREG__+0x1eb>
 22e:	00 c0       	rjmp	.+0      	; 0x230 <__SREG__+0x1f1>
 230:	ef ef       	ldi	r30, 0xFF	; 255
 232:	ff e3       	ldi	r31, 0x3F	; 63
 234:	31 97       	sbiw	r30, 0x01	; 1
 236:	f1 f7       	brne	.-4      	; 0x234 <__SREG__+0x1f5>
 238:	00 c0       	rjmp	.+0      	; 0x23a <__SREG__+0x1fb>
 23a:	98 9b       	sbis	0x13, 0	; 19
 23c:	05 c0       	rjmp	.+10     	; 0x248 <__SREG__+0x209>
 23e:	99 9b       	sbis	0x13, 1	; 19
 240:	03 c0       	rjmp	.+6      	; 0x248 <__SREG__+0x209>
 242:	1a bc       	out	0x2a, r1	; 42
 244:	18 bc       	out	0x28, r1	; 40
 246:	13 bc       	out	0x23, r1	; 35
 248:	9b 9b       	sbis	0x13, 3	; 19
 24a:	19 cf       	rjmp	.-462    	; 0x7e <__SREG__+0x3f>
 24c:	9c 9b       	sbis	0x13, 4	; 19
 24e:	17 cf       	rjmp	.-466    	; 0x7e <__SREG__+0x3f>
 250:	8a bd       	out	0x2a, r24	; 42
 252:	88 bd       	out	0x28, r24	; 40
 254:	83 bd       	out	0x23, r24	; 35
 256:	13 cf       	rjmp	.-474    	; 0x7e <__SREG__+0x3f>

00000258 <_exit>:
 258:	f8 94       	cli

0000025a <__stop_program>:
 25a:	ff cf       	rjmp	.-2      	; 0x25a <__stop_program>
