
bin/Release/apwm.elf:     file format elf32-avr

Sections:
Idx Name          Size      VMA       LMA       File off  Algn
  0 .text         00000262  00000000  00000000  00000094  2**1
                  CONTENTS, ALLOC, LOAD, READONLY, CODE
  1 .data         00000004  00800060  00000262  000002f6  2**0
                  CONTENTS, ALLOC, LOAD, DATA
  2 .bss          00000020  00800064  00800064  000002fa  2**0
                  ALLOC
  3 .stab         00000b64  00000000  00000000  000002fc  2**2
                  CONTENTS, READONLY, DEBUGGING
  4 .stabstr      00000973  00000000  00000000  00000e60  2**0
                  CONTENTS, READONLY, DEBUGGING
  5 .comment      00000011  00000000  00000000  000017d3  2**0
                  CONTENTS, READONLY

Disassembly of section .text:

00000000 <__vectors>:
   0:	12 c0       	rjmp	.+36     	; 0x26 <__ctors_end>
   2:	2c c0       	rjmp	.+88     	; 0x5c <__bad_interrupt>
   4:	2b c0       	rjmp	.+86     	; 0x5c <__bad_interrupt>
   6:	2a c0       	rjmp	.+84     	; 0x5c <__bad_interrupt>
   8:	29 c0       	rjmp	.+82     	; 0x5c <__bad_interrupt>
   a:	28 c0       	rjmp	.+80     	; 0x5c <__bad_interrupt>
   c:	27 c0       	rjmp	.+78     	; 0x5c <__bad_interrupt>
   e:	26 c0       	rjmp	.+76     	; 0x5c <__bad_interrupt>
  10:	25 c0       	rjmp	.+74     	; 0x5c <__bad_interrupt>
  12:	24 c0       	rjmp	.+72     	; 0x5c <__bad_interrupt>
  14:	23 c0       	rjmp	.+70     	; 0x5c <__bad_interrupt>
  16:	22 c0       	rjmp	.+68     	; 0x5c <__bad_interrupt>
  18:	21 c0       	rjmp	.+66     	; 0x5c <__bad_interrupt>
  1a:	20 c0       	rjmp	.+64     	; 0x5c <__bad_interrupt>
  1c:	1f c0       	rjmp	.+62     	; 0x5c <__bad_interrupt>
  1e:	1e c0       	rjmp	.+60     	; 0x5c <__bad_interrupt>
  20:	1d c0       	rjmp	.+58     	; 0x5c <__bad_interrupt>
  22:	1c c0       	rjmp	.+56     	; 0x5c <__bad_interrupt>
  24:	1b c0       	rjmp	.+54     	; 0x5c <__bad_interrupt>

00000026 <__ctors_end>:
  26:	11 24       	eor	r1, r1
  28:	1f be       	out	0x3f, r1	; 63
  2a:	cf e5       	ldi	r28, 0x5F	; 95
  2c:	d4 e0       	ldi	r29, 0x04	; 4
  2e:	de bf       	out	0x3e, r29	; 62
  30:	cd bf       	out	0x3d, r28	; 61

00000032 <__do_clear_bss>:
  32:	10 e0       	ldi	r17, 0x00	; 0
  34:	a4 e6       	ldi	r26, 0x64	; 100
  36:	b0 e0       	ldi	r27, 0x00	; 0
  38:	01 c0       	rjmp	.+2      	; 0x3c <.do_clear_bss_start>

0000003a <.do_clear_bss_loop>:
  3a:	1d 92       	st	X+, r1

0000003c <.do_clear_bss_start>:
  3c:	a4 38       	cpi	r26, 0x84	; 132
  3e:	b1 07       	cpc	r27, r17
  40:	e1 f7       	brne	.-8      	; 0x3a <.do_clear_bss_loop>

00000042 <__do_copy_data>:
  42:	10 e0       	ldi	r17, 0x00	; 0
  44:	a0 e6       	ldi	r26, 0x60	; 96
  46:	b0 e0       	ldi	r27, 0x00	; 0
  48:	e2 e6       	ldi	r30, 0x62	; 98
  4a:	f2 e0       	ldi	r31, 0x02	; 2
  4c:	02 c0       	rjmp	.+4      	; 0x52 <__do_copy_data+0x10>
  4e:	05 90       	lpm	r0, Z+
  50:	0d 92       	st	X+, r0
  52:	a4 36       	cpi	r26, 0x64	; 100
  54:	b1 07       	cpc	r27, r17
  56:	d9 f7       	brne	.-10     	; 0x4e <__do_copy_data+0xc>
  58:	2f d0       	rcall	.+94     	; 0xb8 <main>
  5a:	01 c1       	rjmp	.+514    	; 0x25e <_exit>

0000005c <__bad_interrupt>:
  5c:	d1 cf       	rjmp	.-94     	; 0x0 <__vectors>

0000005e <generate_tagert_color>:
  5e:	96 d0       	rcall	.+300    	; 0x18c <rand>
  60:	90 93 75 00 	sts	0x0075, r25
  64:	80 93 74 00 	sts	0x0074, r24
  68:	91 d0       	rcall	.+290    	; 0x18c <rand>
  6a:	90 93 65 00 	sts	0x0065, r25
  6e:	80 93 64 00 	sts	0x0064, r24
  72:	8c d0       	rcall	.+280    	; 0x18c <rand>
  74:	20 91 74 00 	lds	r18, 0x0074
  78:	30 91 75 00 	lds	r19, 0x0075
  7c:	33 27       	eor	r19, r19
  7e:	30 93 75 00 	sts	0x0075, r19
  82:	20 93 74 00 	sts	0x0074, r18
  86:	20 91 64 00 	lds	r18, 0x0064
  8a:	30 91 65 00 	lds	r19, 0x0065
  8e:	33 27       	eor	r19, r19
  90:	30 93 65 00 	sts	0x0065, r19
  94:	20 93 64 00 	sts	0x0064, r18
  98:	99 27       	eor	r25, r25
  9a:	90 93 73 00 	sts	0x0073, r25
  9e:	80 93 72 00 	sts	0x0072, r24
  a2:	08 95       	ret

000000a4 <delay>:
  a4:	89 2b       	or	r24, r25
  a6:	39 f0       	breq	.+14     	; 0xb6 <delay+0x12>
  a8:	87 eb       	ldi	r24, 0xB7	; 183
  aa:	9b e0       	ldi	r25, 0x0B	; 11
  ac:	01 97       	sbiw	r24, 0x01	; 1
  ae:	f1 f7       	brne	.-4      	; 0xac <delay+0x8>
  b0:	00 c0       	rjmp	.+0      	; 0xb2 <delay+0xe>
  b2:	00 00       	nop
  b4:	f9 cf       	rjmp	.-14     	; 0xa8 <delay+0x4>
  b6:	08 95       	ret

000000b8 <main>:
  b8:	18 ba       	out	0x18, r1	; 24
  ba:	8e e0       	ldi	r24, 0x0E	; 14
  bc:	87 bb       	out	0x17, r24	; 23
  be:	15 ba       	out	0x15, r1	; 21
  c0:	14 ba       	out	0x14, r1	; 20
  c2:	12 ba       	out	0x12, r1	; 18
  c4:	11 ba       	out	0x11, r1	; 17
  c6:	13 be       	out	0x33, r1	; 51
  c8:	12 be       	out	0x32, r1	; 50
  ca:	81 ea       	ldi	r24, 0xA1	; 161
  cc:	8f bd       	out	0x2f, r24	; 47
  ce:	89 e0       	ldi	r24, 0x09	; 9
  d0:	8e bd       	out	0x2e, r24	; 46
  d2:	1d bc       	out	0x2d, r1	; 45
  d4:	1c bc       	out	0x2c, r1	; 44
  d6:	17 bc       	out	0x27, r1	; 39
  d8:	16 bc       	out	0x26, r1	; 38
  da:	1b bc       	out	0x2b, r1	; 43
  dc:	1a bc       	out	0x2a, r1	; 42
  de:	19 bc       	out	0x29, r1	; 41
  e0:	18 bc       	out	0x28, r1	; 40
  e2:	12 bc       	out	0x22, r1	; 34
  e4:	89 e6       	ldi	r24, 0x69	; 105
  e6:	85 bd       	out	0x25, r24	; 37
  e8:	14 bc       	out	0x24, r1	; 36
  ea:	13 bc       	out	0x23, r1	; 35
  ec:	15 be       	out	0x35, r1	; 53
  ee:	19 be       	out	0x39, r1	; 57
  f0:	80 e8       	ldi	r24, 0x80	; 128
  f2:	88 b9       	out	0x08, r24	; 8
  f4:	10 be       	out	0x30, r1	; 48
  f6:	08 95       	ret

000000f8 <do_rand>:
  f8:	8f 92       	push	r8
  fa:	9f 92       	push	r9
  fc:	af 92       	push	r10
  fe:	bf 92       	push	r11
 100:	cf 92       	push	r12
 102:	df 92       	push	r13
 104:	ef 92       	push	r14
 106:	ff 92       	push	r15
 108:	cf 93       	push	r28
 10a:	df 93       	push	r29
 10c:	ec 01       	movw	r28, r24
 10e:	68 81       	ld	r22, Y
 110:	79 81       	ldd	r23, Y+1	; 0x01
 112:	8a 81       	ldd	r24, Y+2	; 0x02
 114:	9b 81       	ldd	r25, Y+3	; 0x03
 116:	61 15       	cp	r22, r1
 118:	71 05       	cpc	r23, r1
 11a:	81 05       	cpc	r24, r1
 11c:	91 05       	cpc	r25, r1
 11e:	21 f4       	brne	.+8      	; 0x128 <do_rand+0x30>
 120:	64 e2       	ldi	r22, 0x24	; 36
 122:	79 ed       	ldi	r23, 0xD9	; 217
 124:	8b e5       	ldi	r24, 0x5B	; 91
 126:	97 e0       	ldi	r25, 0x07	; 7
 128:	2d e1       	ldi	r18, 0x1D	; 29
 12a:	33 ef       	ldi	r19, 0xF3	; 243
 12c:	41 e0       	ldi	r20, 0x01	; 1
 12e:	50 e0       	ldi	r21, 0x00	; 0
 130:	4c d0       	rcall	.+152    	; 0x1ca <__divmodsi4>
 132:	49 01       	movw	r8, r18
 134:	5a 01       	movw	r10, r20
 136:	9b 01       	movw	r18, r22
 138:	ac 01       	movw	r20, r24
 13a:	a7 ea       	ldi	r26, 0xA7	; 167
 13c:	b1 e4       	ldi	r27, 0x41	; 65
 13e:	35 d0       	rcall	.+106    	; 0x1aa <__muluhisi3>
 140:	6b 01       	movw	r12, r22
 142:	7c 01       	movw	r14, r24
 144:	ac ee       	ldi	r26, 0xEC	; 236
 146:	b4 ef       	ldi	r27, 0xF4	; 244
 148:	a5 01       	movw	r20, r10
 14a:	94 01       	movw	r18, r8
 14c:	3a d0       	rcall	.+116    	; 0x1c2 <__mulohisi3>
 14e:	c6 0e       	add	r12, r22
 150:	d7 1e       	adc	r13, r23
 152:	e8 1e       	adc	r14, r24
 154:	f9 1e       	adc	r15, r25
 156:	f7 fe       	sbrs	r15, 7
 158:	06 c0       	rjmp	.+12     	; 0x166 <do_rand+0x6e>
 15a:	81 e0       	ldi	r24, 0x01	; 1
 15c:	c8 1a       	sub	r12, r24
 15e:	d1 08       	sbc	r13, r1
 160:	e1 08       	sbc	r14, r1
 162:	80 e8       	ldi	r24, 0x80	; 128
 164:	f8 0a       	sbc	r15, r24
 166:	c8 82       	st	Y, r12
 168:	d9 82       	std	Y+1, r13	; 0x01
 16a:	ea 82       	std	Y+2, r14	; 0x02
 16c:	fb 82       	std	Y+3, r15	; 0x03
 16e:	c6 01       	movw	r24, r12
 170:	9f 77       	andi	r25, 0x7F	; 127
 172:	df 91       	pop	r29
 174:	cf 91       	pop	r28
 176:	ff 90       	pop	r15
 178:	ef 90       	pop	r14
 17a:	df 90       	pop	r13
 17c:	cf 90       	pop	r12
 17e:	bf 90       	pop	r11
 180:	af 90       	pop	r10
 182:	9f 90       	pop	r9
 184:	8f 90       	pop	r8
 186:	08 95       	ret

00000188 <rand_r>:
 188:	b7 df       	rcall	.-146    	; 0xf8 <do_rand>
 18a:	08 95       	ret

0000018c <rand>:
 18c:	80 e6       	ldi	r24, 0x60	; 96
 18e:	90 e0       	ldi	r25, 0x00	; 0
 190:	b3 df       	rcall	.-154    	; 0xf8 <do_rand>
 192:	08 95       	ret

00000194 <srand>:
 194:	a0 e0       	ldi	r26, 0x00	; 0
 196:	b0 e0       	ldi	r27, 0x00	; 0
 198:	80 93 60 00 	sts	0x0060, r24
 19c:	90 93 61 00 	sts	0x0061, r25
 1a0:	a0 93 62 00 	sts	0x0062, r26
 1a4:	b0 93 63 00 	sts	0x0063, r27
 1a8:	08 95       	ret

000001aa <__muluhisi3>:
 1aa:	2b d0       	rcall	.+86     	; 0x202 <__umulhisi3>
 1ac:	a5 9f       	mul	r26, r21
 1ae:	90 0d       	add	r25, r0
 1b0:	b4 9f       	mul	r27, r20
 1b2:	90 0d       	add	r25, r0
 1b4:	a4 9f       	mul	r26, r20
 1b6:	80 0d       	add	r24, r0
 1b8:	91 1d       	adc	r25, r1
 1ba:	11 24       	eor	r1, r1
 1bc:	08 95       	ret

000001be <__mulshisi3>:
 1be:	b7 ff       	sbrs	r27, 7
 1c0:	f4 cf       	rjmp	.-24     	; 0x1aa <__muluhisi3>

000001c2 <__mulohisi3>:
 1c2:	f3 df       	rcall	.-26     	; 0x1aa <__muluhisi3>
 1c4:	82 1b       	sub	r24, r18
 1c6:	93 0b       	sbc	r25, r19
 1c8:	08 95       	ret

000001ca <__divmodsi4>:
 1ca:	05 2e       	mov	r0, r21
 1cc:	97 fb       	bst	r25, 7
 1ce:	16 f4       	brtc	.+4      	; 0x1d4 <__divmodsi4+0xa>
 1d0:	00 94       	com	r0
 1d2:	0f d0       	rcall	.+30     	; 0x1f2 <__negsi2>
 1d4:	57 fd       	sbrc	r21, 7
 1d6:	05 d0       	rcall	.+10     	; 0x1e2 <__divmodsi4_neg2>
 1d8:	20 d0       	rcall	.+64     	; 0x21a <__udivmodsi4>
 1da:	07 fc       	sbrc	r0, 7
 1dc:	02 d0       	rcall	.+4      	; 0x1e2 <__divmodsi4_neg2>
 1de:	46 f4       	brtc	.+16     	; 0x1f0 <__divmodsi4_exit>
 1e0:	08 c0       	rjmp	.+16     	; 0x1f2 <__negsi2>

000001e2 <__divmodsi4_neg2>:
 1e2:	50 95       	com	r21
 1e4:	40 95       	com	r20
 1e6:	30 95       	com	r19
 1e8:	21 95       	neg	r18
 1ea:	3f 4f       	sbci	r19, 0xFF	; 255
 1ec:	4f 4f       	sbci	r20, 0xFF	; 255
 1ee:	5f 4f       	sbci	r21, 0xFF	; 255

000001f0 <__divmodsi4_exit>:
 1f0:	08 95       	ret

000001f2 <__negsi2>:
 1f2:	90 95       	com	r25
 1f4:	80 95       	com	r24
 1f6:	70 95       	com	r23
 1f8:	61 95       	neg	r22
 1fa:	7f 4f       	sbci	r23, 0xFF	; 255
 1fc:	8f 4f       	sbci	r24, 0xFF	; 255
 1fe:	9f 4f       	sbci	r25, 0xFF	; 255
 200:	08 95       	ret

00000202 <__umulhisi3>:
 202:	a2 9f       	mul	r26, r18
 204:	b0 01       	movw	r22, r0
 206:	b3 9f       	mul	r27, r19
 208:	c0 01       	movw	r24, r0
 20a:	a3 9f       	mul	r26, r19
 20c:	01 d0       	rcall	.+2      	; 0x210 <__umulhisi3+0xe>
 20e:	b2 9f       	mul	r27, r18
 210:	70 0d       	add	r23, r0
 212:	81 1d       	adc	r24, r1
 214:	11 24       	eor	r1, r1
 216:	91 1d       	adc	r25, r1
 218:	08 95       	ret

0000021a <__udivmodsi4>:
 21a:	a1 e2       	ldi	r26, 0x21	; 33
 21c:	1a 2e       	mov	r1, r26
 21e:	aa 1b       	sub	r26, r26
 220:	bb 1b       	sub	r27, r27
 222:	fd 01       	movw	r30, r26
 224:	0d c0       	rjmp	.+26     	; 0x240 <__udivmodsi4_ep>

00000226 <__udivmodsi4_loop>:
 226:	aa 1f       	adc	r26, r26
 228:	bb 1f       	adc	r27, r27
 22a:	ee 1f       	adc	r30, r30
 22c:	ff 1f       	adc	r31, r31
 22e:	a2 17       	cp	r26, r18
 230:	b3 07       	cpc	r27, r19
 232:	e4 07       	cpc	r30, r20
 234:	f5 07       	cpc	r31, r21
 236:	20 f0       	brcs	.+8      	; 0x240 <__udivmodsi4_ep>
 238:	a2 1b       	sub	r26, r18
 23a:	b3 0b       	sbc	r27, r19
 23c:	e4 0b       	sbc	r30, r20
 23e:	f5 0b       	sbc	r31, r21

00000240 <__udivmodsi4_ep>:
 240:	66 1f       	adc	r22, r22
 242:	77 1f       	adc	r23, r23
 244:	88 1f       	adc	r24, r24
 246:	99 1f       	adc	r25, r25
 248:	1a 94       	dec	r1
 24a:	69 f7       	brne	.-38     	; 0x226 <__udivmodsi4_loop>
 24c:	60 95       	com	r22
 24e:	70 95       	com	r23
 250:	80 95       	com	r24
 252:	90 95       	com	r25
 254:	9b 01       	movw	r18, r22
 256:	ac 01       	movw	r20, r24
 258:	bd 01       	movw	r22, r26
 25a:	cf 01       	movw	r24, r30
 25c:	08 95       	ret

0000025e <_exit>:
 25e:	f8 94       	cli

00000260 <__stop_program>:
 260:	ff cf       	rjmp	.-2      	; 0x260 <__stop_program>
