
bin/Release/sts.elf:     file format elf32-avr

Sections:
Idx Name          Size      VMA       LMA       File off  Algn
  0 .text         000007cc  00000000  00000000  00000094  2**1
                  CONTENTS, ALLOC, LOAD, READONLY, CODE
  1 .data         00000000  00800060  000007cc  00000860  2**0
                  CONTENTS, ALLOC, LOAD, DATA
  2 .fuse         00000002  00820000  00820000  00000860  2**0
                  CONTENTS, ALLOC, LOAD, DATA
  3 .stab         000006cc  00000000  00000000  00000864  2**2
                  CONTENTS, READONLY, DEBUGGING
  4 .stabstr      00000054  00000000  00000000  00000f30  2**0
                  CONTENTS, READONLY, DEBUGGING
  5 .comment      00000011  00000000  00000000  00000f84  2**0
                  CONTENTS, READONLY

Disassembly of section .text:

00000000 <__vectors>:
   0:	12 c0       	rjmp	.+36     	; 0x26 <__ctors_end>
   2:	19 c0       	rjmp	.+50     	; 0x36 <__bad_interrupt>
   4:	18 c0       	rjmp	.+48     	; 0x36 <__bad_interrupt>
   6:	17 c0       	rjmp	.+46     	; 0x36 <__bad_interrupt>
   8:	16 c0       	rjmp	.+44     	; 0x36 <__bad_interrupt>
   a:	15 c0       	rjmp	.+42     	; 0x36 <__bad_interrupt>
   c:	14 c0       	rjmp	.+40     	; 0x36 <__bad_interrupt>
   e:	13 c0       	rjmp	.+38     	; 0x36 <__bad_interrupt>
  10:	12 c0       	rjmp	.+36     	; 0x36 <__bad_interrupt>
  12:	11 c0       	rjmp	.+34     	; 0x36 <__bad_interrupt>
  14:	10 c0       	rjmp	.+32     	; 0x36 <__bad_interrupt>
  16:	0f c0       	rjmp	.+30     	; 0x36 <__bad_interrupt>
  18:	0e c0       	rjmp	.+28     	; 0x36 <__bad_interrupt>
  1a:	0d c0       	rjmp	.+26     	; 0x36 <__bad_interrupt>
  1c:	0c c0       	rjmp	.+24     	; 0x36 <__bad_interrupt>
  1e:	0b c0       	rjmp	.+22     	; 0x36 <__bad_interrupt>
  20:	0a c0       	rjmp	.+20     	; 0x36 <__bad_interrupt>
  22:	09 c0       	rjmp	.+18     	; 0x36 <__bad_interrupt>
  24:	08 c0       	rjmp	.+16     	; 0x36 <__bad_interrupt>

00000026 <__ctors_end>:
  26:	11 24       	eor	r1, r1
  28:	1f be       	out	0x3f, r1	; 63
  2a:	cf e5       	ldi	r28, 0x5F	; 95
  2c:	d4 e0       	ldi	r29, 0x04	; 4
  2e:	de bf       	out	0x3e, r29	; 62
  30:	cd bf       	out	0x3d, r28	; 61
  32:	02 d0       	rcall	.+4      	; 0x38 <main>
  34:	c9 c3       	rjmp	.+1938   	; 0x7c8 <_exit>

00000036 <__bad_interrupt>:
  36:	e4 cf       	rjmp	.-56     	; 0x0 <__vectors>

00000038 <main>:
  38:	8f e3       	ldi	r24, 0x3F	; 63
  3a:	87 bb       	out	0x17, r24	; 23
  3c:	82 e0       	ldi	r24, 0x02	; 2
  3e:	88 bb       	out	0x18, r24	; 24
  40:	8f ef       	ldi	r24, 0xFF	; 255
  42:	9f e3       	ldi	r25, 0x3F	; 63
  44:	01 97       	sbiw	r24, 0x01	; 1
  46:	f1 f7       	brne	.-4      	; 0x44 <__SREG__+0x5>
  48:	00 c0       	rjmp	.+0      	; 0x4a <__SREG__+0xb>
  4a:	8f ef       	ldi	r24, 0xFF	; 255
  4c:	9f e3       	ldi	r25, 0x3F	; 63
  4e:	01 97       	sbiw	r24, 0x01	; 1
  50:	f1 f7       	brne	.-4      	; 0x4e <__SREG__+0xf>
  52:	00 c0       	rjmp	.+0      	; 0x54 <__SREG__+0x15>
  54:	8f ef       	ldi	r24, 0xFF	; 255
  56:	9f e3       	ldi	r25, 0x3F	; 63
  58:	01 97       	sbiw	r24, 0x01	; 1
  5a:	f1 f7       	brne	.-4      	; 0x58 <__SREG__+0x19>
  5c:	00 c0       	rjmp	.+0      	; 0x5e <__SREG__+0x1f>
  5e:	8f ef       	ldi	r24, 0xFF	; 255
  60:	9f e3       	ldi	r25, 0x3F	; 63
  62:	01 97       	sbiw	r24, 0x01	; 1
  64:	f1 f7       	brne	.-4      	; 0x62 <__SREG__+0x23>
  66:	00 c0       	rjmp	.+0      	; 0x68 <__SREG__+0x29>
  68:	8f ef       	ldi	r24, 0xFF	; 255
  6a:	9f e3       	ldi	r25, 0x3F	; 63
  6c:	01 97       	sbiw	r24, 0x01	; 1
  6e:	f1 f7       	brne	.-4      	; 0x6c <__SREG__+0x2d>
  70:	00 c0       	rjmp	.+0      	; 0x72 <__SREG__+0x33>
  72:	8f ef       	ldi	r24, 0xFF	; 255
  74:	9f e3       	ldi	r25, 0x3F	; 63
  76:	01 97       	sbiw	r24, 0x01	; 1
  78:	f1 f7       	brne	.-4      	; 0x76 <__SREG__+0x37>
  7a:	00 c0       	rjmp	.+0      	; 0x7c <__SREG__+0x3d>
  7c:	8f ef       	ldi	r24, 0xFF	; 255
  7e:	9f e3       	ldi	r25, 0x3F	; 63
  80:	01 97       	sbiw	r24, 0x01	; 1
  82:	f1 f7       	brne	.-4      	; 0x80 <__SREG__+0x41>
  84:	00 c0       	rjmp	.+0      	; 0x86 <__SREG__+0x47>
  86:	8f ef       	ldi	r24, 0xFF	; 255
  88:	9f e3       	ldi	r25, 0x3F	; 63
  8a:	01 97       	sbiw	r24, 0x01	; 1
  8c:	f1 f7       	brne	.-4      	; 0x8a <__SREG__+0x4b>
  8e:	00 c0       	rjmp	.+0      	; 0x90 <__SREG__+0x51>
  90:	8f ef       	ldi	r24, 0xFF	; 255
  92:	9f e3       	ldi	r25, 0x3F	; 63
  94:	01 97       	sbiw	r24, 0x01	; 1
  96:	f1 f7       	brne	.-4      	; 0x94 <__SREG__+0x55>
  98:	00 c0       	rjmp	.+0      	; 0x9a <__SREG__+0x5b>
  9a:	8f ef       	ldi	r24, 0xFF	; 255
  9c:	9f e3       	ldi	r25, 0x3F	; 63
  9e:	01 97       	sbiw	r24, 0x01	; 1
  a0:	f1 f7       	brne	.-4      	; 0x9e <__SREG__+0x5f>
  a2:	00 c0       	rjmp	.+0      	; 0xa4 <__SREG__+0x65>
  a4:	8f ef       	ldi	r24, 0xFF	; 255
  a6:	9f e3       	ldi	r25, 0x3F	; 63
  a8:	01 97       	sbiw	r24, 0x01	; 1
  aa:	f1 f7       	brne	.-4      	; 0xa8 <__SREG__+0x69>
  ac:	00 c0       	rjmp	.+0      	; 0xae <__SREG__+0x6f>
  ae:	8f ef       	ldi	r24, 0xFF	; 255
  b0:	9f e3       	ldi	r25, 0x3F	; 63
  b2:	01 97       	sbiw	r24, 0x01	; 1
  b4:	f1 f7       	brne	.-4      	; 0xb2 <__SREG__+0x73>
  b6:	00 c0       	rjmp	.+0      	; 0xb8 <__SREG__+0x79>
  b8:	8f ef       	ldi	r24, 0xFF	; 255
  ba:	9f e3       	ldi	r25, 0x3F	; 63
  bc:	01 97       	sbiw	r24, 0x01	; 1
  be:	f1 f7       	brne	.-4      	; 0xbc <__SREG__+0x7d>
  c0:	00 c0       	rjmp	.+0      	; 0xc2 <__SREG__+0x83>
  c2:	8f ef       	ldi	r24, 0xFF	; 255
  c4:	9f e3       	ldi	r25, 0x3F	; 63
  c6:	01 97       	sbiw	r24, 0x01	; 1
  c8:	f1 f7       	brne	.-4      	; 0xc6 <__SREG__+0x87>
  ca:	00 c0       	rjmp	.+0      	; 0xcc <__SREG__+0x8d>
  cc:	8f ef       	ldi	r24, 0xFF	; 255
  ce:	9f e3       	ldi	r25, 0x3F	; 63
  d0:	01 97       	sbiw	r24, 0x01	; 1
  d2:	f1 f7       	brne	.-4      	; 0xd0 <__SREG__+0x91>
  d4:	00 c0       	rjmp	.+0      	; 0xd6 <__SREG__+0x97>
  d6:	8f ef       	ldi	r24, 0xFF	; 255
  d8:	9f e3       	ldi	r25, 0x3F	; 63
  da:	01 97       	sbiw	r24, 0x01	; 1
  dc:	f1 f7       	brne	.-4      	; 0xda <__SREG__+0x9b>
  de:	00 c0       	rjmp	.+0      	; 0xe0 <__SREG__+0xa1>
  e0:	8f ef       	ldi	r24, 0xFF	; 255
  e2:	9f e3       	ldi	r25, 0x3F	; 63
  e4:	01 97       	sbiw	r24, 0x01	; 1
  e6:	f1 f7       	brne	.-4      	; 0xe4 <__SREG__+0xa5>
  e8:	00 c0       	rjmp	.+0      	; 0xea <__SREG__+0xab>
  ea:	8f ef       	ldi	r24, 0xFF	; 255
  ec:	9f e3       	ldi	r25, 0x3F	; 63
  ee:	01 97       	sbiw	r24, 0x01	; 1
  f0:	f1 f7       	brne	.-4      	; 0xee <__SREG__+0xaf>
  f2:	00 c0       	rjmp	.+0      	; 0xf4 <__SREG__+0xb5>
  f4:	8f ef       	ldi	r24, 0xFF	; 255
  f6:	9f e3       	ldi	r25, 0x3F	; 63
  f8:	01 97       	sbiw	r24, 0x01	; 1
  fa:	f1 f7       	brne	.-4      	; 0xf8 <__SREG__+0xb9>
  fc:	00 c0       	rjmp	.+0      	; 0xfe <__SREG__+0xbf>
  fe:	8f ef       	ldi	r24, 0xFF	; 255
 100:	9f e3       	ldi	r25, 0x3F	; 63
 102:	01 97       	sbiw	r24, 0x01	; 1
 104:	f1 f7       	brne	.-4      	; 0x102 <__SREG__+0xc3>
 106:	00 c0       	rjmp	.+0      	; 0x108 <__SREG__+0xc9>
 108:	8f ef       	ldi	r24, 0xFF	; 255
 10a:	9f e3       	ldi	r25, 0x3F	; 63
 10c:	01 97       	sbiw	r24, 0x01	; 1
 10e:	f1 f7       	brne	.-4      	; 0x10c <__SREG__+0xcd>
 110:	00 c0       	rjmp	.+0      	; 0x112 <__SREG__+0xd3>
 112:	8f ef       	ldi	r24, 0xFF	; 255
 114:	9f e3       	ldi	r25, 0x3F	; 63
 116:	01 97       	sbiw	r24, 0x01	; 1
 118:	f1 f7       	brne	.-4      	; 0x116 <__SREG__+0xd7>
 11a:	00 c0       	rjmp	.+0      	; 0x11c <__SREG__+0xdd>
 11c:	8f ef       	ldi	r24, 0xFF	; 255
 11e:	9f e3       	ldi	r25, 0x3F	; 63
 120:	01 97       	sbiw	r24, 0x01	; 1
 122:	f1 f7       	brne	.-4      	; 0x120 <__SREG__+0xe1>
 124:	00 c0       	rjmp	.+0      	; 0x126 <__SREG__+0xe7>
 126:	8f ef       	ldi	r24, 0xFF	; 255
 128:	9f e3       	ldi	r25, 0x3F	; 63
 12a:	01 97       	sbiw	r24, 0x01	; 1
 12c:	f1 f7       	brne	.-4      	; 0x12a <__SREG__+0xeb>
 12e:	00 c0       	rjmp	.+0      	; 0x130 <__SREG__+0xf1>
 130:	8f ef       	ldi	r24, 0xFF	; 255
 132:	9f e3       	ldi	r25, 0x3F	; 63
 134:	01 97       	sbiw	r24, 0x01	; 1
 136:	f1 f7       	brne	.-4      	; 0x134 <__SREG__+0xf5>
 138:	00 c0       	rjmp	.+0      	; 0x13a <__SREG__+0xfb>
 13a:	8f ef       	ldi	r24, 0xFF	; 255
 13c:	9f e3       	ldi	r25, 0x3F	; 63
 13e:	01 97       	sbiw	r24, 0x01	; 1
 140:	f1 f7       	brne	.-4      	; 0x13e <__SREG__+0xff>
 142:	00 c0       	rjmp	.+0      	; 0x144 <__SREG__+0x105>
 144:	8f ef       	ldi	r24, 0xFF	; 255
 146:	9f e3       	ldi	r25, 0x3F	; 63
 148:	01 97       	sbiw	r24, 0x01	; 1
 14a:	f1 f7       	brne	.-4      	; 0x148 <__SREG__+0x109>
 14c:	00 c0       	rjmp	.+0      	; 0x14e <__SREG__+0x10f>
 14e:	8f ef       	ldi	r24, 0xFF	; 255
 150:	9f e3       	ldi	r25, 0x3F	; 63
 152:	01 97       	sbiw	r24, 0x01	; 1
 154:	f1 f7       	brne	.-4      	; 0x152 <__SREG__+0x113>
 156:	00 c0       	rjmp	.+0      	; 0x158 <__SREG__+0x119>
 158:	8f ef       	ldi	r24, 0xFF	; 255
 15a:	9f e3       	ldi	r25, 0x3F	; 63
 15c:	01 97       	sbiw	r24, 0x01	; 1
 15e:	f1 f7       	brne	.-4      	; 0x15c <__SREG__+0x11d>
 160:	00 c0       	rjmp	.+0      	; 0x162 <__SREG__+0x123>
 162:	8f ef       	ldi	r24, 0xFF	; 255
 164:	9f e3       	ldi	r25, 0x3F	; 63
 166:	01 97       	sbiw	r24, 0x01	; 1
 168:	f1 f7       	brne	.-4      	; 0x166 <__SREG__+0x127>
 16a:	00 c0       	rjmp	.+0      	; 0x16c <__SREG__+0x12d>
 16c:	8f ef       	ldi	r24, 0xFF	; 255
 16e:	9f e3       	ldi	r25, 0x3F	; 63
 170:	01 97       	sbiw	r24, 0x01	; 1
 172:	f1 f7       	brne	.-4      	; 0x170 <__SREG__+0x131>
 174:	00 c0       	rjmp	.+0      	; 0x176 <__SREG__+0x137>
 176:	8f ef       	ldi	r24, 0xFF	; 255
 178:	9f e3       	ldi	r25, 0x3F	; 63
 17a:	01 97       	sbiw	r24, 0x01	; 1
 17c:	f1 f7       	brne	.-4      	; 0x17a <__SREG__+0x13b>
 17e:	00 c0       	rjmp	.+0      	; 0x180 <__SREG__+0x141>
 180:	8f ef       	ldi	r24, 0xFF	; 255
 182:	9f e3       	ldi	r25, 0x3F	; 63
 184:	01 97       	sbiw	r24, 0x01	; 1
 186:	f1 f7       	brne	.-4      	; 0x184 <__SREG__+0x145>
 188:	00 c0       	rjmp	.+0      	; 0x18a <__SREG__+0x14b>
 18a:	8f ef       	ldi	r24, 0xFF	; 255
 18c:	9f e3       	ldi	r25, 0x3F	; 63
 18e:	01 97       	sbiw	r24, 0x01	; 1
 190:	f1 f7       	brne	.-4      	; 0x18e <__SREG__+0x14f>
 192:	00 c0       	rjmp	.+0      	; 0x194 <__SREG__+0x155>
 194:	8f ef       	ldi	r24, 0xFF	; 255
 196:	9f e3       	ldi	r25, 0x3F	; 63
 198:	01 97       	sbiw	r24, 0x01	; 1
 19a:	f1 f7       	brne	.-4      	; 0x198 <__SREG__+0x159>
 19c:	00 c0       	rjmp	.+0      	; 0x19e <__SREG__+0x15f>
 19e:	8f ef       	ldi	r24, 0xFF	; 255
 1a0:	9f e3       	ldi	r25, 0x3F	; 63
 1a2:	01 97       	sbiw	r24, 0x01	; 1
 1a4:	f1 f7       	brne	.-4      	; 0x1a2 <__SREG__+0x163>
 1a6:	00 c0       	rjmp	.+0      	; 0x1a8 <__SREG__+0x169>
 1a8:	8f ef       	ldi	r24, 0xFF	; 255
 1aa:	9f e3       	ldi	r25, 0x3F	; 63
 1ac:	01 97       	sbiw	r24, 0x01	; 1
 1ae:	f1 f7       	brne	.-4      	; 0x1ac <__SREG__+0x16d>
 1b0:	00 c0       	rjmp	.+0      	; 0x1b2 <__SREG__+0x173>
 1b2:	8f ef       	ldi	r24, 0xFF	; 255
 1b4:	9f e3       	ldi	r25, 0x3F	; 63
 1b6:	01 97       	sbiw	r24, 0x01	; 1
 1b8:	f1 f7       	brne	.-4      	; 0x1b6 <__SREG__+0x177>
 1ba:	00 c0       	rjmp	.+0      	; 0x1bc <__SREG__+0x17d>
 1bc:	8f ef       	ldi	r24, 0xFF	; 255
 1be:	9f e3       	ldi	r25, 0x3F	; 63
 1c0:	01 97       	sbiw	r24, 0x01	; 1
 1c2:	f1 f7       	brne	.-4      	; 0x1c0 <__SREG__+0x181>
 1c4:	00 c0       	rjmp	.+0      	; 0x1c6 <__SREG__+0x187>
 1c6:	8f ef       	ldi	r24, 0xFF	; 255
 1c8:	9f e3       	ldi	r25, 0x3F	; 63
 1ca:	01 97       	sbiw	r24, 0x01	; 1
 1cc:	f1 f7       	brne	.-4      	; 0x1ca <__SREG__+0x18b>
 1ce:	00 c0       	rjmp	.+0      	; 0x1d0 <__SREG__+0x191>
 1d0:	8f ef       	ldi	r24, 0xFF	; 255
 1d2:	9f e3       	ldi	r25, 0x3F	; 63
 1d4:	01 97       	sbiw	r24, 0x01	; 1
 1d6:	f1 f7       	brne	.-4      	; 0x1d4 <__SREG__+0x195>
 1d8:	00 c0       	rjmp	.+0      	; 0x1da <__SREG__+0x19b>
 1da:	8f ef       	ldi	r24, 0xFF	; 255
 1dc:	9f e3       	ldi	r25, 0x3F	; 63
 1de:	01 97       	sbiw	r24, 0x01	; 1
 1e0:	f1 f7       	brne	.-4      	; 0x1de <__SREG__+0x19f>
 1e2:	00 c0       	rjmp	.+0      	; 0x1e4 <__SREG__+0x1a5>
 1e4:	8f ef       	ldi	r24, 0xFF	; 255
 1e6:	9f e3       	ldi	r25, 0x3F	; 63
 1e8:	01 97       	sbiw	r24, 0x01	; 1
 1ea:	f1 f7       	brne	.-4      	; 0x1e8 <__SREG__+0x1a9>
 1ec:	00 c0       	rjmp	.+0      	; 0x1ee <__SREG__+0x1af>
 1ee:	8f ef       	ldi	r24, 0xFF	; 255
 1f0:	9f e3       	ldi	r25, 0x3F	; 63
 1f2:	01 97       	sbiw	r24, 0x01	; 1
 1f4:	f1 f7       	brne	.-4      	; 0x1f2 <__SREG__+0x1b3>
 1f6:	00 c0       	rjmp	.+0      	; 0x1f8 <__SREG__+0x1b9>
 1f8:	8f ef       	ldi	r24, 0xFF	; 255
 1fa:	9f e3       	ldi	r25, 0x3F	; 63
 1fc:	01 97       	sbiw	r24, 0x01	; 1
 1fe:	f1 f7       	brne	.-4      	; 0x1fc <__SREG__+0x1bd>
 200:	00 c0       	rjmp	.+0      	; 0x202 <__SREG__+0x1c3>
 202:	8f ef       	ldi	r24, 0xFF	; 255
 204:	9f e3       	ldi	r25, 0x3F	; 63
 206:	01 97       	sbiw	r24, 0x01	; 1
 208:	f1 f7       	brne	.-4      	; 0x206 <__SREG__+0x1c7>
 20a:	00 c0       	rjmp	.+0      	; 0x20c <__SREG__+0x1cd>
 20c:	8f ef       	ldi	r24, 0xFF	; 255
 20e:	9f e3       	ldi	r25, 0x3F	; 63
 210:	01 97       	sbiw	r24, 0x01	; 1
 212:	f1 f7       	brne	.-4      	; 0x210 <__SREG__+0x1d1>
 214:	00 c0       	rjmp	.+0      	; 0x216 <__SREG__+0x1d7>
 216:	8f ef       	ldi	r24, 0xFF	; 255
 218:	9f e3       	ldi	r25, 0x3F	; 63
 21a:	01 97       	sbiw	r24, 0x01	; 1
 21c:	f1 f7       	brne	.-4      	; 0x21a <__SREG__+0x1db>
 21e:	00 c0       	rjmp	.+0      	; 0x220 <__SREG__+0x1e1>
 220:	8f ef       	ldi	r24, 0xFF	; 255
 222:	9f e3       	ldi	r25, 0x3F	; 63
 224:	01 97       	sbiw	r24, 0x01	; 1
 226:	f1 f7       	brne	.-4      	; 0x224 <__SREG__+0x1e5>
 228:	00 c0       	rjmp	.+0      	; 0x22a <__SREG__+0x1eb>
 22a:	8f ef       	ldi	r24, 0xFF	; 255
 22c:	9f e3       	ldi	r25, 0x3F	; 63
 22e:	01 97       	sbiw	r24, 0x01	; 1
 230:	f1 f7       	brne	.-4      	; 0x22e <__SREG__+0x1ef>
 232:	00 c0       	rjmp	.+0      	; 0x234 <__SREG__+0x1f5>
 234:	8f ef       	ldi	r24, 0xFF	; 255
 236:	9f e3       	ldi	r25, 0x3F	; 63
 238:	01 97       	sbiw	r24, 0x01	; 1
 23a:	f1 f7       	brne	.-4      	; 0x238 <__SREG__+0x1f9>
 23c:	00 c0       	rjmp	.+0      	; 0x23e <__SREG__+0x1ff>
 23e:	8f ef       	ldi	r24, 0xFF	; 255
 240:	9f e3       	ldi	r25, 0x3F	; 63
 242:	01 97       	sbiw	r24, 0x01	; 1
 244:	f1 f7       	brne	.-4      	; 0x242 <__SREG__+0x203>
 246:	00 c0       	rjmp	.+0      	; 0x248 <__SREG__+0x209>
 248:	8f ef       	ldi	r24, 0xFF	; 255
 24a:	9f e3       	ldi	r25, 0x3F	; 63
 24c:	01 97       	sbiw	r24, 0x01	; 1
 24e:	f1 f7       	brne	.-4      	; 0x24c <__SREG__+0x20d>
 250:	00 c0       	rjmp	.+0      	; 0x252 <__SREG__+0x213>
 252:	8f ef       	ldi	r24, 0xFF	; 255
 254:	9f e3       	ldi	r25, 0x3F	; 63
 256:	01 97       	sbiw	r24, 0x01	; 1
 258:	f1 f7       	brne	.-4      	; 0x256 <__SREG__+0x217>
 25a:	00 c0       	rjmp	.+0      	; 0x25c <__SREG__+0x21d>
 25c:	8f ef       	ldi	r24, 0xFF	; 255
 25e:	9f e3       	ldi	r25, 0x3F	; 63
 260:	01 97       	sbiw	r24, 0x01	; 1
 262:	f1 f7       	brne	.-4      	; 0x260 <__SREG__+0x221>
 264:	00 c0       	rjmp	.+0      	; 0x266 <__SREG__+0x227>
 266:	8f ef       	ldi	r24, 0xFF	; 255
 268:	9f e3       	ldi	r25, 0x3F	; 63
 26a:	01 97       	sbiw	r24, 0x01	; 1
 26c:	f1 f7       	brne	.-4      	; 0x26a <__SREG__+0x22b>
 26e:	00 c0       	rjmp	.+0      	; 0x270 <__SREG__+0x231>
 270:	8f ef       	ldi	r24, 0xFF	; 255
 272:	9f e3       	ldi	r25, 0x3F	; 63
 274:	01 97       	sbiw	r24, 0x01	; 1
 276:	f1 f7       	brne	.-4      	; 0x274 <__SREG__+0x235>
 278:	00 c0       	rjmp	.+0      	; 0x27a <__SREG__+0x23b>
 27a:	8f ef       	ldi	r24, 0xFF	; 255
 27c:	9f e3       	ldi	r25, 0x3F	; 63
 27e:	01 97       	sbiw	r24, 0x01	; 1
 280:	f1 f7       	brne	.-4      	; 0x27e <__SREG__+0x23f>
 282:	00 c0       	rjmp	.+0      	; 0x284 <__SREG__+0x245>
 284:	8f ef       	ldi	r24, 0xFF	; 255
 286:	9f e3       	ldi	r25, 0x3F	; 63
 288:	01 97       	sbiw	r24, 0x01	; 1
 28a:	f1 f7       	brne	.-4      	; 0x288 <__SREG__+0x249>
 28c:	00 c0       	rjmp	.+0      	; 0x28e <__SREG__+0x24f>
 28e:	8f ef       	ldi	r24, 0xFF	; 255
 290:	9f e3       	ldi	r25, 0x3F	; 63
 292:	01 97       	sbiw	r24, 0x01	; 1
 294:	f1 f7       	brne	.-4      	; 0x292 <__SREG__+0x253>
 296:	00 c0       	rjmp	.+0      	; 0x298 <__SREG__+0x259>
 298:	8f ef       	ldi	r24, 0xFF	; 255
 29a:	9f e3       	ldi	r25, 0x3F	; 63
 29c:	01 97       	sbiw	r24, 0x01	; 1
 29e:	f1 f7       	brne	.-4      	; 0x29c <__SREG__+0x25d>
 2a0:	00 c0       	rjmp	.+0      	; 0x2a2 <__SREG__+0x263>
 2a2:	8f ef       	ldi	r24, 0xFF	; 255
 2a4:	9f e3       	ldi	r25, 0x3F	; 63
 2a6:	01 97       	sbiw	r24, 0x01	; 1
 2a8:	f1 f7       	brne	.-4      	; 0x2a6 <__SREG__+0x267>
 2aa:	00 c0       	rjmp	.+0      	; 0x2ac <__SREG__+0x26d>
 2ac:	8f ef       	ldi	r24, 0xFF	; 255
 2ae:	9f e3       	ldi	r25, 0x3F	; 63
 2b0:	01 97       	sbiw	r24, 0x01	; 1
 2b2:	f1 f7       	brne	.-4      	; 0x2b0 <__SREG__+0x271>
 2b4:	00 c0       	rjmp	.+0      	; 0x2b6 <__SREG__+0x277>
 2b6:	8f ef       	ldi	r24, 0xFF	; 255
 2b8:	9f e3       	ldi	r25, 0x3F	; 63
 2ba:	01 97       	sbiw	r24, 0x01	; 1
 2bc:	f1 f7       	brne	.-4      	; 0x2ba <__SREG__+0x27b>
 2be:	00 c0       	rjmp	.+0      	; 0x2c0 <__SREG__+0x281>
 2c0:	8f ef       	ldi	r24, 0xFF	; 255
 2c2:	9f e3       	ldi	r25, 0x3F	; 63
 2c4:	01 97       	sbiw	r24, 0x01	; 1
 2c6:	f1 f7       	brne	.-4      	; 0x2c4 <__SREG__+0x285>
 2c8:	00 c0       	rjmp	.+0      	; 0x2ca <__SREG__+0x28b>
 2ca:	8f ef       	ldi	r24, 0xFF	; 255
 2cc:	9f e3       	ldi	r25, 0x3F	; 63
 2ce:	01 97       	sbiw	r24, 0x01	; 1
 2d0:	f1 f7       	brne	.-4      	; 0x2ce <__SREG__+0x28f>
 2d2:	00 c0       	rjmp	.+0      	; 0x2d4 <__SREG__+0x295>
 2d4:	8f ef       	ldi	r24, 0xFF	; 255
 2d6:	9f e3       	ldi	r25, 0x3F	; 63
 2d8:	01 97       	sbiw	r24, 0x01	; 1
 2da:	f1 f7       	brne	.-4      	; 0x2d8 <__SREG__+0x299>
 2dc:	00 c0       	rjmp	.+0      	; 0x2de <__SREG__+0x29f>
 2de:	8f ef       	ldi	r24, 0xFF	; 255
 2e0:	9f e3       	ldi	r25, 0x3F	; 63
 2e2:	01 97       	sbiw	r24, 0x01	; 1
 2e4:	f1 f7       	brne	.-4      	; 0x2e2 <__SREG__+0x2a3>
 2e6:	00 c0       	rjmp	.+0      	; 0x2e8 <__SREG__+0x2a9>
 2e8:	8f ef       	ldi	r24, 0xFF	; 255
 2ea:	9f e3       	ldi	r25, 0x3F	; 63
 2ec:	01 97       	sbiw	r24, 0x01	; 1
 2ee:	f1 f7       	brne	.-4      	; 0x2ec <__SREG__+0x2ad>
 2f0:	00 c0       	rjmp	.+0      	; 0x2f2 <__SREG__+0x2b3>
 2f2:	8f ef       	ldi	r24, 0xFF	; 255
 2f4:	9f e3       	ldi	r25, 0x3F	; 63
 2f6:	01 97       	sbiw	r24, 0x01	; 1
 2f8:	f1 f7       	brne	.-4      	; 0x2f6 <__SREG__+0x2b7>
 2fa:	00 c0       	rjmp	.+0      	; 0x2fc <__SREG__+0x2bd>
 2fc:	8f ef       	ldi	r24, 0xFF	; 255
 2fe:	9f e3       	ldi	r25, 0x3F	; 63
 300:	01 97       	sbiw	r24, 0x01	; 1
 302:	f1 f7       	brne	.-4      	; 0x300 <__SREG__+0x2c1>
 304:	00 c0       	rjmp	.+0      	; 0x306 <__SREG__+0x2c7>
 306:	8f ef       	ldi	r24, 0xFF	; 255
 308:	9f e3       	ldi	r25, 0x3F	; 63
 30a:	01 97       	sbiw	r24, 0x01	; 1
 30c:	f1 f7       	brne	.-4      	; 0x30a <__SREG__+0x2cb>
 30e:	00 c0       	rjmp	.+0      	; 0x310 <__SREG__+0x2d1>
 310:	8f ef       	ldi	r24, 0xFF	; 255
 312:	9f e3       	ldi	r25, 0x3F	; 63
 314:	01 97       	sbiw	r24, 0x01	; 1
 316:	f1 f7       	brne	.-4      	; 0x314 <__SREG__+0x2d5>
 318:	00 c0       	rjmp	.+0      	; 0x31a <__SREG__+0x2db>
 31a:	8f ef       	ldi	r24, 0xFF	; 255
 31c:	9f e3       	ldi	r25, 0x3F	; 63
 31e:	01 97       	sbiw	r24, 0x01	; 1
 320:	f1 f7       	brne	.-4      	; 0x31e <__SREG__+0x2df>
 322:	00 c0       	rjmp	.+0      	; 0x324 <__SREG__+0x2e5>
 324:	8f ef       	ldi	r24, 0xFF	; 255
 326:	9f e3       	ldi	r25, 0x3F	; 63
 328:	01 97       	sbiw	r24, 0x01	; 1
 32a:	f1 f7       	brne	.-4      	; 0x328 <__SREG__+0x2e9>
 32c:	00 c0       	rjmp	.+0      	; 0x32e <__SREG__+0x2ef>
 32e:	8f ef       	ldi	r24, 0xFF	; 255
 330:	9f e3       	ldi	r25, 0x3F	; 63
 332:	01 97       	sbiw	r24, 0x01	; 1
 334:	f1 f7       	brne	.-4      	; 0x332 <__SREG__+0x2f3>
 336:	00 c0       	rjmp	.+0      	; 0x338 <__SREG__+0x2f9>
 338:	8f ef       	ldi	r24, 0xFF	; 255
 33a:	9f e3       	ldi	r25, 0x3F	; 63
 33c:	01 97       	sbiw	r24, 0x01	; 1
 33e:	f1 f7       	brne	.-4      	; 0x33c <__SREG__+0x2fd>
 340:	00 c0       	rjmp	.+0      	; 0x342 <__SREG__+0x303>
 342:	8f ef       	ldi	r24, 0xFF	; 255
 344:	9f e3       	ldi	r25, 0x3F	; 63
 346:	01 97       	sbiw	r24, 0x01	; 1
 348:	f1 f7       	brne	.-4      	; 0x346 <__SREG__+0x307>
 34a:	00 c0       	rjmp	.+0      	; 0x34c <__SREG__+0x30d>
 34c:	8f ef       	ldi	r24, 0xFF	; 255
 34e:	9f e3       	ldi	r25, 0x3F	; 63
 350:	01 97       	sbiw	r24, 0x01	; 1
 352:	f1 f7       	brne	.-4      	; 0x350 <__SREG__+0x311>
 354:	00 c0       	rjmp	.+0      	; 0x356 <__SREG__+0x317>
 356:	8f ef       	ldi	r24, 0xFF	; 255
 358:	9f e3       	ldi	r25, 0x3F	; 63
 35a:	01 97       	sbiw	r24, 0x01	; 1
 35c:	f1 f7       	brne	.-4      	; 0x35a <__SREG__+0x31b>
 35e:	00 c0       	rjmp	.+0      	; 0x360 <__SREG__+0x321>
 360:	8f ef       	ldi	r24, 0xFF	; 255
 362:	9f e3       	ldi	r25, 0x3F	; 63
 364:	01 97       	sbiw	r24, 0x01	; 1
 366:	f1 f7       	brne	.-4      	; 0x364 <__SREG__+0x325>
 368:	00 c0       	rjmp	.+0      	; 0x36a <__SREG__+0x32b>
 36a:	8f ef       	ldi	r24, 0xFF	; 255
 36c:	9f e3       	ldi	r25, 0x3F	; 63
 36e:	01 97       	sbiw	r24, 0x01	; 1
 370:	f1 f7       	brne	.-4      	; 0x36e <__SREG__+0x32f>
 372:	00 c0       	rjmp	.+0      	; 0x374 <__SREG__+0x335>
 374:	8f ef       	ldi	r24, 0xFF	; 255
 376:	9f e3       	ldi	r25, 0x3F	; 63
 378:	01 97       	sbiw	r24, 0x01	; 1
 37a:	f1 f7       	brne	.-4      	; 0x378 <__SREG__+0x339>
 37c:	00 c0       	rjmp	.+0      	; 0x37e <__SREG__+0x33f>
 37e:	8f ef       	ldi	r24, 0xFF	; 255
 380:	9f e3       	ldi	r25, 0x3F	; 63
 382:	01 97       	sbiw	r24, 0x01	; 1
 384:	f1 f7       	brne	.-4      	; 0x382 <__SREG__+0x343>
 386:	00 c0       	rjmp	.+0      	; 0x388 <__SREG__+0x349>
 388:	8f ef       	ldi	r24, 0xFF	; 255
 38a:	9f e3       	ldi	r25, 0x3F	; 63
 38c:	01 97       	sbiw	r24, 0x01	; 1
 38e:	f1 f7       	brne	.-4      	; 0x38c <__SREG__+0x34d>
 390:	00 c0       	rjmp	.+0      	; 0x392 <__SREG__+0x353>
 392:	8f ef       	ldi	r24, 0xFF	; 255
 394:	9f e3       	ldi	r25, 0x3F	; 63
 396:	01 97       	sbiw	r24, 0x01	; 1
 398:	f1 f7       	brne	.-4      	; 0x396 <__SREG__+0x357>
 39a:	00 c0       	rjmp	.+0      	; 0x39c <__SREG__+0x35d>
 39c:	8f ef       	ldi	r24, 0xFF	; 255
 39e:	9f e3       	ldi	r25, 0x3F	; 63
 3a0:	01 97       	sbiw	r24, 0x01	; 1
 3a2:	f1 f7       	brne	.-4      	; 0x3a0 <__SREG__+0x361>
 3a4:	00 c0       	rjmp	.+0      	; 0x3a6 <__SREG__+0x367>
 3a6:	8f ef       	ldi	r24, 0xFF	; 255
 3a8:	9f e3       	ldi	r25, 0x3F	; 63
 3aa:	01 97       	sbiw	r24, 0x01	; 1
 3ac:	f1 f7       	brne	.-4      	; 0x3aa <__SREG__+0x36b>
 3ae:	00 c0       	rjmp	.+0      	; 0x3b0 <__SREG__+0x371>
 3b0:	8f ef       	ldi	r24, 0xFF	; 255
 3b2:	9f e3       	ldi	r25, 0x3F	; 63
 3b4:	01 97       	sbiw	r24, 0x01	; 1
 3b6:	f1 f7       	brne	.-4      	; 0x3b4 <__SREG__+0x375>
 3b8:	00 c0       	rjmp	.+0      	; 0x3ba <__SREG__+0x37b>
 3ba:	8f ef       	ldi	r24, 0xFF	; 255
 3bc:	9f e3       	ldi	r25, 0x3F	; 63
 3be:	01 97       	sbiw	r24, 0x01	; 1
 3c0:	f1 f7       	brne	.-4      	; 0x3be <__SREG__+0x37f>
 3c2:	00 c0       	rjmp	.+0      	; 0x3c4 <__SREG__+0x385>
 3c4:	8f ef       	ldi	r24, 0xFF	; 255
 3c6:	9f e3       	ldi	r25, 0x3F	; 63
 3c8:	01 97       	sbiw	r24, 0x01	; 1
 3ca:	f1 f7       	brne	.-4      	; 0x3c8 <__SREG__+0x389>
 3cc:	00 c0       	rjmp	.+0      	; 0x3ce <__SREG__+0x38f>
 3ce:	8f ef       	ldi	r24, 0xFF	; 255
 3d0:	9f e3       	ldi	r25, 0x3F	; 63
 3d2:	01 97       	sbiw	r24, 0x01	; 1
 3d4:	f1 f7       	brne	.-4      	; 0x3d2 <__SREG__+0x393>
 3d6:	00 c0       	rjmp	.+0      	; 0x3d8 <__SREG__+0x399>
 3d8:	8f ef       	ldi	r24, 0xFF	; 255
 3da:	9f e3       	ldi	r25, 0x3F	; 63
 3dc:	01 97       	sbiw	r24, 0x01	; 1
 3de:	f1 f7       	brne	.-4      	; 0x3dc <__SREG__+0x39d>
 3e0:	00 c0       	rjmp	.+0      	; 0x3e2 <__SREG__+0x3a3>
 3e2:	8f ef       	ldi	r24, 0xFF	; 255
 3e4:	9f e3       	ldi	r25, 0x3F	; 63
 3e6:	01 97       	sbiw	r24, 0x01	; 1
 3e8:	f1 f7       	brne	.-4      	; 0x3e6 <__SREG__+0x3a7>
 3ea:	00 c0       	rjmp	.+0      	; 0x3ec <__SREG__+0x3ad>
 3ec:	8f ef       	ldi	r24, 0xFF	; 255
 3ee:	9f e3       	ldi	r25, 0x3F	; 63
 3f0:	01 97       	sbiw	r24, 0x01	; 1
 3f2:	f1 f7       	brne	.-4      	; 0x3f0 <__SREG__+0x3b1>
 3f4:	00 c0       	rjmp	.+0      	; 0x3f6 <__SREG__+0x3b7>
 3f6:	8f ef       	ldi	r24, 0xFF	; 255
 3f8:	9f e3       	ldi	r25, 0x3F	; 63
 3fa:	01 97       	sbiw	r24, 0x01	; 1
 3fc:	f1 f7       	brne	.-4      	; 0x3fa <__SREG__+0x3bb>
 3fe:	00 c0       	rjmp	.+0      	; 0x400 <__SREG__+0x3c1>
 400:	86 e0       	ldi	r24, 0x06	; 6
 402:	88 bb       	out	0x18, r24	; 24
 404:	8f ef       	ldi	r24, 0xFF	; 255
 406:	9f e3       	ldi	r25, 0x3F	; 63
 408:	01 97       	sbiw	r24, 0x01	; 1
 40a:	f1 f7       	brne	.-4      	; 0x408 <__SREG__+0x3c9>
 40c:	00 c0       	rjmp	.+0      	; 0x40e <__SREG__+0x3cf>
 40e:	8f ef       	ldi	r24, 0xFF	; 255
 410:	9f e3       	ldi	r25, 0x3F	; 63
 412:	01 97       	sbiw	r24, 0x01	; 1
 414:	f1 f7       	brne	.-4      	; 0x412 <__SREG__+0x3d3>
 416:	00 c0       	rjmp	.+0      	; 0x418 <__SREG__+0x3d9>
 418:	8f ef       	ldi	r24, 0xFF	; 255
 41a:	9f e3       	ldi	r25, 0x3F	; 63
 41c:	01 97       	sbiw	r24, 0x01	; 1
 41e:	f1 f7       	brne	.-4      	; 0x41c <__SREG__+0x3dd>
 420:	00 c0       	rjmp	.+0      	; 0x422 <__SREG__+0x3e3>
 422:	8f ef       	ldi	r24, 0xFF	; 255
 424:	9f e3       	ldi	r25, 0x3F	; 63
 426:	01 97       	sbiw	r24, 0x01	; 1
 428:	f1 f7       	brne	.-4      	; 0x426 <__SREG__+0x3e7>
 42a:	00 c0       	rjmp	.+0      	; 0x42c <__SREG__+0x3ed>
 42c:	8f ef       	ldi	r24, 0xFF	; 255
 42e:	9f e3       	ldi	r25, 0x3F	; 63
 430:	01 97       	sbiw	r24, 0x01	; 1
 432:	f1 f7       	brne	.-4      	; 0x430 <__SREG__+0x3f1>
 434:	00 c0       	rjmp	.+0      	; 0x436 <__SREG__+0x3f7>
 436:	8f ef       	ldi	r24, 0xFF	; 255
 438:	9f e3       	ldi	r25, 0x3F	; 63
 43a:	01 97       	sbiw	r24, 0x01	; 1
 43c:	f1 f7       	brne	.-4      	; 0x43a <__SREG__+0x3fb>
 43e:	00 c0       	rjmp	.+0      	; 0x440 <__SREG__+0x401>
 440:	8f ef       	ldi	r24, 0xFF	; 255
 442:	9f e3       	ldi	r25, 0x3F	; 63
 444:	01 97       	sbiw	r24, 0x01	; 1
 446:	f1 f7       	brne	.-4      	; 0x444 <__SREG__+0x405>
 448:	00 c0       	rjmp	.+0      	; 0x44a <__SREG__+0x40b>
 44a:	8f ef       	ldi	r24, 0xFF	; 255
 44c:	9f e3       	ldi	r25, 0x3F	; 63
 44e:	01 97       	sbiw	r24, 0x01	; 1
 450:	f1 f7       	brne	.-4      	; 0x44e <__SREG__+0x40f>
 452:	00 c0       	rjmp	.+0      	; 0x454 <__SREG__+0x415>
 454:	8f ef       	ldi	r24, 0xFF	; 255
 456:	9f e3       	ldi	r25, 0x3F	; 63
 458:	01 97       	sbiw	r24, 0x01	; 1
 45a:	f1 f7       	brne	.-4      	; 0x458 <__SREG__+0x419>
 45c:	00 c0       	rjmp	.+0      	; 0x45e <__SREG__+0x41f>
 45e:	8f ef       	ldi	r24, 0xFF	; 255
 460:	9f e3       	ldi	r25, 0x3F	; 63
 462:	01 97       	sbiw	r24, 0x01	; 1
 464:	f1 f7       	brne	.-4      	; 0x462 <__stack+0x3>
 466:	00 c0       	rjmp	.+0      	; 0x468 <__stack+0x9>
 468:	8f ef       	ldi	r24, 0xFF	; 255
 46a:	9f e3       	ldi	r25, 0x3F	; 63
 46c:	01 97       	sbiw	r24, 0x01	; 1
 46e:	f1 f7       	brne	.-4      	; 0x46c <__stack+0xd>
 470:	00 c0       	rjmp	.+0      	; 0x472 <__stack+0x13>
 472:	8f ef       	ldi	r24, 0xFF	; 255
 474:	9f e3       	ldi	r25, 0x3F	; 63
 476:	01 97       	sbiw	r24, 0x01	; 1
 478:	f1 f7       	brne	.-4      	; 0x476 <__stack+0x17>
 47a:	00 c0       	rjmp	.+0      	; 0x47c <__stack+0x1d>
 47c:	8f ef       	ldi	r24, 0xFF	; 255
 47e:	9f e3       	ldi	r25, 0x3F	; 63
 480:	01 97       	sbiw	r24, 0x01	; 1
 482:	f1 f7       	brne	.-4      	; 0x480 <__stack+0x21>
 484:	00 c0       	rjmp	.+0      	; 0x486 <__stack+0x27>
 486:	8f ef       	ldi	r24, 0xFF	; 255
 488:	9f e3       	ldi	r25, 0x3F	; 63
 48a:	01 97       	sbiw	r24, 0x01	; 1
 48c:	f1 f7       	brne	.-4      	; 0x48a <__stack+0x2b>
 48e:	00 c0       	rjmp	.+0      	; 0x490 <__stack+0x31>
 490:	8f ef       	ldi	r24, 0xFF	; 255
 492:	9f e3       	ldi	r25, 0x3F	; 63
 494:	01 97       	sbiw	r24, 0x01	; 1
 496:	f1 f7       	brne	.-4      	; 0x494 <__stack+0x35>
 498:	00 c0       	rjmp	.+0      	; 0x49a <__stack+0x3b>
 49a:	8f ef       	ldi	r24, 0xFF	; 255
 49c:	9f e3       	ldi	r25, 0x3F	; 63
 49e:	01 97       	sbiw	r24, 0x01	; 1
 4a0:	f1 f7       	brne	.-4      	; 0x49e <__stack+0x3f>
 4a2:	00 c0       	rjmp	.+0      	; 0x4a4 <__stack+0x45>
 4a4:	8f ef       	ldi	r24, 0xFF	; 255
 4a6:	9f e3       	ldi	r25, 0x3F	; 63
 4a8:	01 97       	sbiw	r24, 0x01	; 1
 4aa:	f1 f7       	brne	.-4      	; 0x4a8 <__stack+0x49>
 4ac:	00 c0       	rjmp	.+0      	; 0x4ae <__stack+0x4f>
 4ae:	8f ef       	ldi	r24, 0xFF	; 255
 4b0:	9f e3       	ldi	r25, 0x3F	; 63
 4b2:	01 97       	sbiw	r24, 0x01	; 1
 4b4:	f1 f7       	brne	.-4      	; 0x4b2 <__stack+0x53>
 4b6:	00 c0       	rjmp	.+0      	; 0x4b8 <__stack+0x59>
 4b8:	8f ef       	ldi	r24, 0xFF	; 255
 4ba:	9f e3       	ldi	r25, 0x3F	; 63
 4bc:	01 97       	sbiw	r24, 0x01	; 1
 4be:	f1 f7       	brne	.-4      	; 0x4bc <__stack+0x5d>
 4c0:	00 c0       	rjmp	.+0      	; 0x4c2 <__stack+0x63>
 4c2:	8f ef       	ldi	r24, 0xFF	; 255
 4c4:	9f e3       	ldi	r25, 0x3F	; 63
 4c6:	01 97       	sbiw	r24, 0x01	; 1
 4c8:	f1 f7       	brne	.-4      	; 0x4c6 <__stack+0x67>
 4ca:	00 c0       	rjmp	.+0      	; 0x4cc <__stack+0x6d>
 4cc:	8f ef       	ldi	r24, 0xFF	; 255
 4ce:	9f e3       	ldi	r25, 0x3F	; 63
 4d0:	01 97       	sbiw	r24, 0x01	; 1
 4d2:	f1 f7       	brne	.-4      	; 0x4d0 <__stack+0x71>
 4d4:	00 c0       	rjmp	.+0      	; 0x4d6 <__stack+0x77>
 4d6:	8f ef       	ldi	r24, 0xFF	; 255
 4d8:	9f e3       	ldi	r25, 0x3F	; 63
 4da:	01 97       	sbiw	r24, 0x01	; 1
 4dc:	f1 f7       	brne	.-4      	; 0x4da <__stack+0x7b>
 4de:	00 c0       	rjmp	.+0      	; 0x4e0 <__stack+0x81>
 4e0:	8f ef       	ldi	r24, 0xFF	; 255
 4e2:	9f e3       	ldi	r25, 0x3F	; 63
 4e4:	01 97       	sbiw	r24, 0x01	; 1
 4e6:	f1 f7       	brne	.-4      	; 0x4e4 <__stack+0x85>
 4e8:	00 c0       	rjmp	.+0      	; 0x4ea <__stack+0x8b>
 4ea:	8f ef       	ldi	r24, 0xFF	; 255
 4ec:	9f e3       	ldi	r25, 0x3F	; 63
 4ee:	01 97       	sbiw	r24, 0x01	; 1
 4f0:	f1 f7       	brne	.-4      	; 0x4ee <__stack+0x8f>
 4f2:	00 c0       	rjmp	.+0      	; 0x4f4 <__stack+0x95>
 4f4:	8f ef       	ldi	r24, 0xFF	; 255
 4f6:	9f e3       	ldi	r25, 0x3F	; 63
 4f8:	01 97       	sbiw	r24, 0x01	; 1
 4fa:	f1 f7       	brne	.-4      	; 0x4f8 <__stack+0x99>
 4fc:	00 c0       	rjmp	.+0      	; 0x4fe <__stack+0x9f>
 4fe:	8f ef       	ldi	r24, 0xFF	; 255
 500:	9f e3       	ldi	r25, 0x3F	; 63
 502:	01 97       	sbiw	r24, 0x01	; 1
 504:	f1 f7       	brne	.-4      	; 0x502 <__stack+0xa3>
 506:	00 c0       	rjmp	.+0      	; 0x508 <__stack+0xa9>
 508:	8f ef       	ldi	r24, 0xFF	; 255
 50a:	9f e3       	ldi	r25, 0x3F	; 63
 50c:	01 97       	sbiw	r24, 0x01	; 1
 50e:	f1 f7       	brne	.-4      	; 0x50c <__stack+0xad>
 510:	00 c0       	rjmp	.+0      	; 0x512 <__stack+0xb3>
 512:	8f ef       	ldi	r24, 0xFF	; 255
 514:	9f e3       	ldi	r25, 0x3F	; 63
 516:	01 97       	sbiw	r24, 0x01	; 1
 518:	f1 f7       	brne	.-4      	; 0x516 <__stack+0xb7>
 51a:	00 c0       	rjmp	.+0      	; 0x51c <__stack+0xbd>
 51c:	8f ef       	ldi	r24, 0xFF	; 255
 51e:	9f e3       	ldi	r25, 0x3F	; 63
 520:	01 97       	sbiw	r24, 0x01	; 1
 522:	f1 f7       	brne	.-4      	; 0x520 <__stack+0xc1>
 524:	00 c0       	rjmp	.+0      	; 0x526 <__stack+0xc7>
 526:	8f ef       	ldi	r24, 0xFF	; 255
 528:	9f e3       	ldi	r25, 0x3F	; 63
 52a:	01 97       	sbiw	r24, 0x01	; 1
 52c:	f1 f7       	brne	.-4      	; 0x52a <__stack+0xcb>
 52e:	00 c0       	rjmp	.+0      	; 0x530 <__stack+0xd1>
 530:	8f ef       	ldi	r24, 0xFF	; 255
 532:	9f e3       	ldi	r25, 0x3F	; 63
 534:	01 97       	sbiw	r24, 0x01	; 1
 536:	f1 f7       	brne	.-4      	; 0x534 <__stack+0xd5>
 538:	00 c0       	rjmp	.+0      	; 0x53a <__stack+0xdb>
 53a:	8f ef       	ldi	r24, 0xFF	; 255
 53c:	9f e3       	ldi	r25, 0x3F	; 63
 53e:	01 97       	sbiw	r24, 0x01	; 1
 540:	f1 f7       	brne	.-4      	; 0x53e <__stack+0xdf>
 542:	00 c0       	rjmp	.+0      	; 0x544 <__stack+0xe5>
 544:	8f ef       	ldi	r24, 0xFF	; 255
 546:	9f e3       	ldi	r25, 0x3F	; 63
 548:	01 97       	sbiw	r24, 0x01	; 1
 54a:	f1 f7       	brne	.-4      	; 0x548 <__stack+0xe9>
 54c:	00 c0       	rjmp	.+0      	; 0x54e <__stack+0xef>
 54e:	8f ef       	ldi	r24, 0xFF	; 255
 550:	9f e3       	ldi	r25, 0x3F	; 63
 552:	01 97       	sbiw	r24, 0x01	; 1
 554:	f1 f7       	brne	.-4      	; 0x552 <__stack+0xf3>
 556:	00 c0       	rjmp	.+0      	; 0x558 <__stack+0xf9>
 558:	8f ef       	ldi	r24, 0xFF	; 255
 55a:	9f e3       	ldi	r25, 0x3F	; 63
 55c:	01 97       	sbiw	r24, 0x01	; 1
 55e:	f1 f7       	brne	.-4      	; 0x55c <__stack+0xfd>
 560:	00 c0       	rjmp	.+0      	; 0x562 <__stack+0x103>
 562:	8f ef       	ldi	r24, 0xFF	; 255
 564:	9f e3       	ldi	r25, 0x3F	; 63
 566:	01 97       	sbiw	r24, 0x01	; 1
 568:	f1 f7       	brne	.-4      	; 0x566 <__stack+0x107>
 56a:	00 c0       	rjmp	.+0      	; 0x56c <__stack+0x10d>
 56c:	8f ef       	ldi	r24, 0xFF	; 255
 56e:	9f e3       	ldi	r25, 0x3F	; 63
 570:	01 97       	sbiw	r24, 0x01	; 1
 572:	f1 f7       	brne	.-4      	; 0x570 <__stack+0x111>
 574:	00 c0       	rjmp	.+0      	; 0x576 <__stack+0x117>
 576:	8f ef       	ldi	r24, 0xFF	; 255
 578:	9f e3       	ldi	r25, 0x3F	; 63
 57a:	01 97       	sbiw	r24, 0x01	; 1
 57c:	f1 f7       	brne	.-4      	; 0x57a <__stack+0x11b>
 57e:	00 c0       	rjmp	.+0      	; 0x580 <__stack+0x121>
 580:	8f ef       	ldi	r24, 0xFF	; 255
 582:	9f e3       	ldi	r25, 0x3F	; 63
 584:	01 97       	sbiw	r24, 0x01	; 1
 586:	f1 f7       	brne	.-4      	; 0x584 <__stack+0x125>
 588:	00 c0       	rjmp	.+0      	; 0x58a <__stack+0x12b>
 58a:	8f ef       	ldi	r24, 0xFF	; 255
 58c:	9f e3       	ldi	r25, 0x3F	; 63
 58e:	01 97       	sbiw	r24, 0x01	; 1
 590:	f1 f7       	brne	.-4      	; 0x58e <__stack+0x12f>
 592:	00 c0       	rjmp	.+0      	; 0x594 <__stack+0x135>
 594:	8f ef       	ldi	r24, 0xFF	; 255
 596:	9f e3       	ldi	r25, 0x3F	; 63
 598:	01 97       	sbiw	r24, 0x01	; 1
 59a:	f1 f7       	brne	.-4      	; 0x598 <__stack+0x139>
 59c:	00 c0       	rjmp	.+0      	; 0x59e <__stack+0x13f>
 59e:	8f ef       	ldi	r24, 0xFF	; 255
 5a0:	9f e3       	ldi	r25, 0x3F	; 63
 5a2:	01 97       	sbiw	r24, 0x01	; 1
 5a4:	f1 f7       	brne	.-4      	; 0x5a2 <__stack+0x143>
 5a6:	00 c0       	rjmp	.+0      	; 0x5a8 <__stack+0x149>
 5a8:	8f ef       	ldi	r24, 0xFF	; 255
 5aa:	9f e3       	ldi	r25, 0x3F	; 63
 5ac:	01 97       	sbiw	r24, 0x01	; 1
 5ae:	f1 f7       	brne	.-4      	; 0x5ac <__stack+0x14d>
 5b0:	00 c0       	rjmp	.+0      	; 0x5b2 <__stack+0x153>
 5b2:	8f ef       	ldi	r24, 0xFF	; 255
 5b4:	9f e3       	ldi	r25, 0x3F	; 63
 5b6:	01 97       	sbiw	r24, 0x01	; 1
 5b8:	f1 f7       	brne	.-4      	; 0x5b6 <__stack+0x157>
 5ba:	00 c0       	rjmp	.+0      	; 0x5bc <__stack+0x15d>
 5bc:	8f ef       	ldi	r24, 0xFF	; 255
 5be:	9f e3       	ldi	r25, 0x3F	; 63
 5c0:	01 97       	sbiw	r24, 0x01	; 1
 5c2:	f1 f7       	brne	.-4      	; 0x5c0 <__stack+0x161>
 5c4:	00 c0       	rjmp	.+0      	; 0x5c6 <__stack+0x167>
 5c6:	8f ef       	ldi	r24, 0xFF	; 255
 5c8:	9f e3       	ldi	r25, 0x3F	; 63
 5ca:	01 97       	sbiw	r24, 0x01	; 1
 5cc:	f1 f7       	brne	.-4      	; 0x5ca <__stack+0x16b>
 5ce:	00 c0       	rjmp	.+0      	; 0x5d0 <__stack+0x171>
 5d0:	8f ef       	ldi	r24, 0xFF	; 255
 5d2:	9f e3       	ldi	r25, 0x3F	; 63
 5d4:	01 97       	sbiw	r24, 0x01	; 1
 5d6:	f1 f7       	brne	.-4      	; 0x5d4 <__stack+0x175>
 5d8:	00 c0       	rjmp	.+0      	; 0x5da <__stack+0x17b>
 5da:	8f ef       	ldi	r24, 0xFF	; 255
 5dc:	9f e3       	ldi	r25, 0x3F	; 63
 5de:	01 97       	sbiw	r24, 0x01	; 1
 5e0:	f1 f7       	brne	.-4      	; 0x5de <__stack+0x17f>
 5e2:	00 c0       	rjmp	.+0      	; 0x5e4 <__stack+0x185>
 5e4:	8f ef       	ldi	r24, 0xFF	; 255
 5e6:	9f e3       	ldi	r25, 0x3F	; 63
 5e8:	01 97       	sbiw	r24, 0x01	; 1
 5ea:	f1 f7       	brne	.-4      	; 0x5e8 <__stack+0x189>
 5ec:	00 c0       	rjmp	.+0      	; 0x5ee <__stack+0x18f>
 5ee:	8f ef       	ldi	r24, 0xFF	; 255
 5f0:	9f e3       	ldi	r25, 0x3F	; 63
 5f2:	01 97       	sbiw	r24, 0x01	; 1
 5f4:	f1 f7       	brne	.-4      	; 0x5f2 <__stack+0x193>
 5f6:	00 c0       	rjmp	.+0      	; 0x5f8 <__stack+0x199>
 5f8:	8f ef       	ldi	r24, 0xFF	; 255
 5fa:	9f e3       	ldi	r25, 0x3F	; 63
 5fc:	01 97       	sbiw	r24, 0x01	; 1
 5fe:	f1 f7       	brne	.-4      	; 0x5fc <__stack+0x19d>
 600:	00 c0       	rjmp	.+0      	; 0x602 <__stack+0x1a3>
 602:	8f ef       	ldi	r24, 0xFF	; 255
 604:	9f e3       	ldi	r25, 0x3F	; 63
 606:	01 97       	sbiw	r24, 0x01	; 1
 608:	f1 f7       	brne	.-4      	; 0x606 <__stack+0x1a7>
 60a:	00 c0       	rjmp	.+0      	; 0x60c <__stack+0x1ad>
 60c:	8f ef       	ldi	r24, 0xFF	; 255
 60e:	9f e3       	ldi	r25, 0x3F	; 63
 610:	01 97       	sbiw	r24, 0x01	; 1
 612:	f1 f7       	brne	.-4      	; 0x610 <__stack+0x1b1>
 614:	00 c0       	rjmp	.+0      	; 0x616 <__stack+0x1b7>
 616:	8f ef       	ldi	r24, 0xFF	; 255
 618:	9f e3       	ldi	r25, 0x3F	; 63
 61a:	01 97       	sbiw	r24, 0x01	; 1
 61c:	f1 f7       	brne	.-4      	; 0x61a <__stack+0x1bb>
 61e:	00 c0       	rjmp	.+0      	; 0x620 <__stack+0x1c1>
 620:	8f ef       	ldi	r24, 0xFF	; 255
 622:	9f e3       	ldi	r25, 0x3F	; 63
 624:	01 97       	sbiw	r24, 0x01	; 1
 626:	f1 f7       	brne	.-4      	; 0x624 <__stack+0x1c5>
 628:	00 c0       	rjmp	.+0      	; 0x62a <__stack+0x1cb>
 62a:	8f ef       	ldi	r24, 0xFF	; 255
 62c:	9f e3       	ldi	r25, 0x3F	; 63
 62e:	01 97       	sbiw	r24, 0x01	; 1
 630:	f1 f7       	brne	.-4      	; 0x62e <__stack+0x1cf>
 632:	00 c0       	rjmp	.+0      	; 0x634 <__stack+0x1d5>
 634:	8f ef       	ldi	r24, 0xFF	; 255
 636:	9f e3       	ldi	r25, 0x3F	; 63
 638:	01 97       	sbiw	r24, 0x01	; 1
 63a:	f1 f7       	brne	.-4      	; 0x638 <__stack+0x1d9>
 63c:	00 c0       	rjmp	.+0      	; 0x63e <__stack+0x1df>
 63e:	8f ef       	ldi	r24, 0xFF	; 255
 640:	9f e3       	ldi	r25, 0x3F	; 63
 642:	01 97       	sbiw	r24, 0x01	; 1
 644:	f1 f7       	brne	.-4      	; 0x642 <__stack+0x1e3>
 646:	00 c0       	rjmp	.+0      	; 0x648 <__stack+0x1e9>
 648:	8f ef       	ldi	r24, 0xFF	; 255
 64a:	9f e3       	ldi	r25, 0x3F	; 63
 64c:	01 97       	sbiw	r24, 0x01	; 1
 64e:	f1 f7       	brne	.-4      	; 0x64c <__stack+0x1ed>
 650:	00 c0       	rjmp	.+0      	; 0x652 <__stack+0x1f3>
 652:	8f ef       	ldi	r24, 0xFF	; 255
 654:	9f e3       	ldi	r25, 0x3F	; 63
 656:	01 97       	sbiw	r24, 0x01	; 1
 658:	f1 f7       	brne	.-4      	; 0x656 <__stack+0x1f7>
 65a:	00 c0       	rjmp	.+0      	; 0x65c <__stack+0x1fd>
 65c:	8f ef       	ldi	r24, 0xFF	; 255
 65e:	9f e3       	ldi	r25, 0x3F	; 63
 660:	01 97       	sbiw	r24, 0x01	; 1
 662:	f1 f7       	brne	.-4      	; 0x660 <__stack+0x201>
 664:	00 c0       	rjmp	.+0      	; 0x666 <__stack+0x207>
 666:	8f ef       	ldi	r24, 0xFF	; 255
 668:	9f e3       	ldi	r25, 0x3F	; 63
 66a:	01 97       	sbiw	r24, 0x01	; 1
 66c:	f1 f7       	brne	.-4      	; 0x66a <__stack+0x20b>
 66e:	00 c0       	rjmp	.+0      	; 0x670 <__stack+0x211>
 670:	8f ef       	ldi	r24, 0xFF	; 255
 672:	9f e3       	ldi	r25, 0x3F	; 63
 674:	01 97       	sbiw	r24, 0x01	; 1
 676:	f1 f7       	brne	.-4      	; 0x674 <__stack+0x215>
 678:	00 c0       	rjmp	.+0      	; 0x67a <__stack+0x21b>
 67a:	8f ef       	ldi	r24, 0xFF	; 255
 67c:	9f e3       	ldi	r25, 0x3F	; 63
 67e:	01 97       	sbiw	r24, 0x01	; 1
 680:	f1 f7       	brne	.-4      	; 0x67e <__stack+0x21f>
 682:	00 c0       	rjmp	.+0      	; 0x684 <__stack+0x225>
 684:	8f ef       	ldi	r24, 0xFF	; 255
 686:	9f e3       	ldi	r25, 0x3F	; 63
 688:	01 97       	sbiw	r24, 0x01	; 1
 68a:	f1 f7       	brne	.-4      	; 0x688 <__stack+0x229>
 68c:	00 c0       	rjmp	.+0      	; 0x68e <__stack+0x22f>
 68e:	8f ef       	ldi	r24, 0xFF	; 255
 690:	9f e3       	ldi	r25, 0x3F	; 63
 692:	01 97       	sbiw	r24, 0x01	; 1
 694:	f1 f7       	brne	.-4      	; 0x692 <__stack+0x233>
 696:	00 c0       	rjmp	.+0      	; 0x698 <__stack+0x239>
 698:	8f ef       	ldi	r24, 0xFF	; 255
 69a:	9f e3       	ldi	r25, 0x3F	; 63
 69c:	01 97       	sbiw	r24, 0x01	; 1
 69e:	f1 f7       	brne	.-4      	; 0x69c <__stack+0x23d>
 6a0:	00 c0       	rjmp	.+0      	; 0x6a2 <__stack+0x243>
 6a2:	8f ef       	ldi	r24, 0xFF	; 255
 6a4:	9f e3       	ldi	r25, 0x3F	; 63
 6a6:	01 97       	sbiw	r24, 0x01	; 1
 6a8:	f1 f7       	brne	.-4      	; 0x6a6 <__stack+0x247>
 6aa:	00 c0       	rjmp	.+0      	; 0x6ac <__stack+0x24d>
 6ac:	8f ef       	ldi	r24, 0xFF	; 255
 6ae:	9f e3       	ldi	r25, 0x3F	; 63
 6b0:	01 97       	sbiw	r24, 0x01	; 1
 6b2:	f1 f7       	brne	.-4      	; 0x6b0 <__stack+0x251>
 6b4:	00 c0       	rjmp	.+0      	; 0x6b6 <__stack+0x257>
 6b6:	8f ef       	ldi	r24, 0xFF	; 255
 6b8:	9f e3       	ldi	r25, 0x3F	; 63
 6ba:	01 97       	sbiw	r24, 0x01	; 1
 6bc:	f1 f7       	brne	.-4      	; 0x6ba <__stack+0x25b>
 6be:	00 c0       	rjmp	.+0      	; 0x6c0 <__stack+0x261>
 6c0:	8f ef       	ldi	r24, 0xFF	; 255
 6c2:	9f e3       	ldi	r25, 0x3F	; 63
 6c4:	01 97       	sbiw	r24, 0x01	; 1
 6c6:	f1 f7       	brne	.-4      	; 0x6c4 <__stack+0x265>
 6c8:	00 c0       	rjmp	.+0      	; 0x6ca <__stack+0x26b>
 6ca:	8f ef       	ldi	r24, 0xFF	; 255
 6cc:	9f e3       	ldi	r25, 0x3F	; 63
 6ce:	01 97       	sbiw	r24, 0x01	; 1
 6d0:	f1 f7       	brne	.-4      	; 0x6ce <__stack+0x26f>
 6d2:	00 c0       	rjmp	.+0      	; 0x6d4 <__stack+0x275>
 6d4:	8f ef       	ldi	r24, 0xFF	; 255
 6d6:	9f e3       	ldi	r25, 0x3F	; 63
 6d8:	01 97       	sbiw	r24, 0x01	; 1
 6da:	f1 f7       	brne	.-4      	; 0x6d8 <__stack+0x279>
 6dc:	00 c0       	rjmp	.+0      	; 0x6de <__stack+0x27f>
 6de:	8f ef       	ldi	r24, 0xFF	; 255
 6e0:	9f e3       	ldi	r25, 0x3F	; 63
 6e2:	01 97       	sbiw	r24, 0x01	; 1
 6e4:	f1 f7       	brne	.-4      	; 0x6e2 <__stack+0x283>
 6e6:	00 c0       	rjmp	.+0      	; 0x6e8 <__stack+0x289>
 6e8:	8f ef       	ldi	r24, 0xFF	; 255
 6ea:	9f e3       	ldi	r25, 0x3F	; 63
 6ec:	01 97       	sbiw	r24, 0x01	; 1
 6ee:	f1 f7       	brne	.-4      	; 0x6ec <__stack+0x28d>
 6f0:	00 c0       	rjmp	.+0      	; 0x6f2 <__stack+0x293>
 6f2:	8f ef       	ldi	r24, 0xFF	; 255
 6f4:	9f e3       	ldi	r25, 0x3F	; 63
 6f6:	01 97       	sbiw	r24, 0x01	; 1
 6f8:	f1 f7       	brne	.-4      	; 0x6f6 <__stack+0x297>
 6fa:	00 c0       	rjmp	.+0      	; 0x6fc <__stack+0x29d>
 6fc:	8f ef       	ldi	r24, 0xFF	; 255
 6fe:	9f e3       	ldi	r25, 0x3F	; 63
 700:	01 97       	sbiw	r24, 0x01	; 1
 702:	f1 f7       	brne	.-4      	; 0x700 <__stack+0x2a1>
 704:	00 c0       	rjmp	.+0      	; 0x706 <__stack+0x2a7>
 706:	8f ef       	ldi	r24, 0xFF	; 255
 708:	9f e3       	ldi	r25, 0x3F	; 63
 70a:	01 97       	sbiw	r24, 0x01	; 1
 70c:	f1 f7       	brne	.-4      	; 0x70a <__stack+0x2ab>
 70e:	00 c0       	rjmp	.+0      	; 0x710 <__stack+0x2b1>
 710:	8f ef       	ldi	r24, 0xFF	; 255
 712:	9f e3       	ldi	r25, 0x3F	; 63
 714:	01 97       	sbiw	r24, 0x01	; 1
 716:	f1 f7       	brne	.-4      	; 0x714 <__stack+0x2b5>
 718:	00 c0       	rjmp	.+0      	; 0x71a <__stack+0x2bb>
 71a:	8f ef       	ldi	r24, 0xFF	; 255
 71c:	9f e3       	ldi	r25, 0x3F	; 63
 71e:	01 97       	sbiw	r24, 0x01	; 1
 720:	f1 f7       	brne	.-4      	; 0x71e <__stack+0x2bf>
 722:	00 c0       	rjmp	.+0      	; 0x724 <__stack+0x2c5>
 724:	8f ef       	ldi	r24, 0xFF	; 255
 726:	9f e3       	ldi	r25, 0x3F	; 63
 728:	01 97       	sbiw	r24, 0x01	; 1
 72a:	f1 f7       	brne	.-4      	; 0x728 <__stack+0x2c9>
 72c:	00 c0       	rjmp	.+0      	; 0x72e <__stack+0x2cf>
 72e:	8f ef       	ldi	r24, 0xFF	; 255
 730:	9f e3       	ldi	r25, 0x3F	; 63
 732:	01 97       	sbiw	r24, 0x01	; 1
 734:	f1 f7       	brne	.-4      	; 0x732 <__stack+0x2d3>
 736:	00 c0       	rjmp	.+0      	; 0x738 <__stack+0x2d9>
 738:	8f ef       	ldi	r24, 0xFF	; 255
 73a:	9f e3       	ldi	r25, 0x3F	; 63
 73c:	01 97       	sbiw	r24, 0x01	; 1
 73e:	f1 f7       	brne	.-4      	; 0x73c <__stack+0x2dd>
 740:	00 c0       	rjmp	.+0      	; 0x742 <__stack+0x2e3>
 742:	8f ef       	ldi	r24, 0xFF	; 255
 744:	9f e3       	ldi	r25, 0x3F	; 63
 746:	01 97       	sbiw	r24, 0x01	; 1
 748:	f1 f7       	brne	.-4      	; 0x746 <__stack+0x2e7>
 74a:	00 c0       	rjmp	.+0      	; 0x74c <__stack+0x2ed>
 74c:	8f ef       	ldi	r24, 0xFF	; 255
 74e:	9f e3       	ldi	r25, 0x3F	; 63
 750:	01 97       	sbiw	r24, 0x01	; 1
 752:	f1 f7       	brne	.-4      	; 0x750 <__stack+0x2f1>
 754:	00 c0       	rjmp	.+0      	; 0x756 <__stack+0x2f7>
 756:	8f ef       	ldi	r24, 0xFF	; 255
 758:	9f e3       	ldi	r25, 0x3F	; 63
 75a:	01 97       	sbiw	r24, 0x01	; 1
 75c:	f1 f7       	brne	.-4      	; 0x75a <__stack+0x2fb>
 75e:	00 c0       	rjmp	.+0      	; 0x760 <__stack+0x301>
 760:	8f ef       	ldi	r24, 0xFF	; 255
 762:	9f e3       	ldi	r25, 0x3F	; 63
 764:	01 97       	sbiw	r24, 0x01	; 1
 766:	f1 f7       	brne	.-4      	; 0x764 <__stack+0x305>
 768:	00 c0       	rjmp	.+0      	; 0x76a <__stack+0x30b>
 76a:	8f ef       	ldi	r24, 0xFF	; 255
 76c:	9f e3       	ldi	r25, 0x3F	; 63
 76e:	01 97       	sbiw	r24, 0x01	; 1
 770:	f1 f7       	brne	.-4      	; 0x76e <__stack+0x30f>
 772:	00 c0       	rjmp	.+0      	; 0x774 <__stack+0x315>
 774:	8f ef       	ldi	r24, 0xFF	; 255
 776:	9f e3       	ldi	r25, 0x3F	; 63
 778:	01 97       	sbiw	r24, 0x01	; 1
 77a:	f1 f7       	brne	.-4      	; 0x778 <__stack+0x319>
 77c:	00 c0       	rjmp	.+0      	; 0x77e <__stack+0x31f>
 77e:	8f ef       	ldi	r24, 0xFF	; 255
 780:	9f e3       	ldi	r25, 0x3F	; 63
 782:	01 97       	sbiw	r24, 0x01	; 1
 784:	f1 f7       	brne	.-4      	; 0x782 <__stack+0x323>
 786:	00 c0       	rjmp	.+0      	; 0x788 <__stack+0x329>
 788:	8f ef       	ldi	r24, 0xFF	; 255
 78a:	9f e3       	ldi	r25, 0x3F	; 63
 78c:	01 97       	sbiw	r24, 0x01	; 1
 78e:	f1 f7       	brne	.-4      	; 0x78c <__stack+0x32d>
 790:	00 c0       	rjmp	.+0      	; 0x792 <__stack+0x333>
 792:	8f ef       	ldi	r24, 0xFF	; 255
 794:	9f e3       	ldi	r25, 0x3F	; 63
 796:	01 97       	sbiw	r24, 0x01	; 1
 798:	f1 f7       	brne	.-4      	; 0x796 <__stack+0x337>
 79a:	00 c0       	rjmp	.+0      	; 0x79c <__stack+0x33d>
 79c:	8f ef       	ldi	r24, 0xFF	; 255
 79e:	9f e3       	ldi	r25, 0x3F	; 63
 7a0:	01 97       	sbiw	r24, 0x01	; 1
 7a2:	f1 f7       	brne	.-4      	; 0x7a0 <__stack+0x341>
 7a4:	00 c0       	rjmp	.+0      	; 0x7a6 <__stack+0x347>
 7a6:	8f ef       	ldi	r24, 0xFF	; 255
 7a8:	9f e3       	ldi	r25, 0x3F	; 63
 7aa:	01 97       	sbiw	r24, 0x01	; 1
 7ac:	f1 f7       	brne	.-4      	; 0x7aa <__stack+0x34b>
 7ae:	00 c0       	rjmp	.+0      	; 0x7b0 <__stack+0x351>
 7b0:	8f ef       	ldi	r24, 0xFF	; 255
 7b2:	9f e3       	ldi	r25, 0x3F	; 63
 7b4:	01 97       	sbiw	r24, 0x01	; 1
 7b6:	f1 f7       	brne	.-4      	; 0x7b4 <__stack+0x355>
 7b8:	00 c0       	rjmp	.+0      	; 0x7ba <__stack+0x35b>
 7ba:	8f ef       	ldi	r24, 0xFF	; 255
 7bc:	9f e3       	ldi	r25, 0x3F	; 63
 7be:	01 97       	sbiw	r24, 0x01	; 1
 7c0:	f1 f7       	brne	.-4      	; 0x7be <__stack+0x35f>
 7c2:	00 c0       	rjmp	.+0      	; 0x7c4 <__stack+0x365>
 7c4:	18 ba       	out	0x18, r1	; 24
 7c6:	08 95       	ret

000007c8 <_exit>:
 7c8:	f8 94       	cli

000007ca <__stop_program>:
 7ca:	ff cf       	rjmp	.-2      	; 0x7ca <__stop_program>
